
usbStorage.elf:     file format elf32-avr

Sections:
Idx Name          Size      VMA       LMA       File off  Algn
  0 .text         000016d4  00000000  00000000  00000094  2**1
                  CONTENTS, ALLOC, LOAD, READONLY, CODE
  1 .data         00000002  00800060  000016d4  00001768  2**0
                  CONTENTS, ALLOC, LOAD, DATA
  2 .bss          000000cb  00800062  00800062  0000176a  2**0
                  ALLOC
  3 .stab         000009f0  00000000  00000000  0000176c  2**2
                  CONTENTS, READONLY, DEBUGGING
  4 .stabstr      00000256  00000000  00000000  0000215c  2**0
                  CONTENTS, READONLY, DEBUGGING
  5 .debug_aranges 00000040  00000000  00000000  000023b8  2**3
                  CONTENTS, READONLY, DEBUGGING
  6 .debug_info   000000c8  00000000  00000000  000023f8  2**0
                  CONTENTS, READONLY, DEBUGGING
  7 .debug_abbrev 00000028  00000000  00000000  000024c0  2**0
                  CONTENTS, READONLY, DEBUGGING
  8 .debug_line   00000290  00000000  00000000  000024e8  2**0
                  CONTENTS, READONLY, DEBUGGING

Disassembly of section .text:

00000000 <__vectors>:
       0:	4e c0       	rjmp	.+156    	; 0x9e <__ctors_end>
       2:	21 c9       	rjmp	.-3518   	; 0xfffff246 <__eeprom_end+0xff7ef246>
       4:	67 c0       	rjmp	.+206    	; 0xd4 <__bad_interrupt>
       6:	66 c0       	rjmp	.+204    	; 0xd4 <__bad_interrupt>
       8:	65 c0       	rjmp	.+202    	; 0xd4 <__bad_interrupt>
       a:	64 c0       	rjmp	.+200    	; 0xd4 <__bad_interrupt>
       c:	63 c0       	rjmp	.+198    	; 0xd4 <__bad_interrupt>
       e:	62 c0       	rjmp	.+196    	; 0xd4 <__bad_interrupt>
      10:	37 c3       	rjmp	.+1646   	; 0x680 <__vector_8>
      12:	0a c3       	rjmp	.+1556   	; 0x628 <__vector_9>
      14:	5f c0       	rjmp	.+190    	; 0xd4 <__bad_interrupt>
      16:	dd c6       	rjmp	.+3514   	; 0xdd2 <__vector_11>
      18:	05 c7       	rjmp	.+3594   	; 0xe24 <__vector_12>
      1a:	5c c0       	rjmp	.+184    	; 0xd4 <__bad_interrupt>
      1c:	5b c0       	rjmp	.+182    	; 0xd4 <__bad_interrupt>
      1e:	5a c0       	rjmp	.+180    	; 0xd4 <__bad_interrupt>
      20:	59 c0       	rjmp	.+178    	; 0xd4 <__bad_interrupt>
      22:	58 c0       	rjmp	.+176    	; 0xd4 <__bad_interrupt>
      24:	57 c0       	rjmp	.+174    	; 0xd4 <__bad_interrupt>

00000026 <usbDescriptorString0>:
      26:	04 03 09 04                                         ....

0000002a <usbDescriptorStringVendor>:
      2a:	0c 03 42 00 6f 00 6a 00 6f 00 6b 00                 ..B.o.j.o.k.

00000036 <usbDescriptorStringDevice>:
      36:	12 03 4b 00 47 00 2d 00 54 00 6f 00 6b 00 65 00     ..K.G.-.T.o.k.e.
      46:	6e 00                                               n.

00000048 <usbDescriptorDevice>:
      48:	12 01 10 01 00 00 00 08 c0 16 df 05 00 01 01 02     ................
      58:	00 01                                               ..

0000005a <usbDescriptorConfiguration>:
      5a:	09 02 22 00 01 01 00 80 4b 09 04 00 00 01 03 00     ..".....K.......
      6a:	00 00 09 21 01 01 00 01 22 22 00 07 05 81 03 08     ...!....""......
      7a:	00 64                                               .d

0000007c <usbDescriptorHidReport>:
      7c:	06 a0 ff 09 01 a1 01 09 02 15 00 26 ff 00 75 08     ...........&..u.
      8c:	95 40 81 02 09 03 15 00 26 ff 00 75 08 95 40 91     .@......&..u..@.
      9c:	02 c0                                               ..

0000009e <__ctors_end>:
      9e:	11 24       	eor	r1, r1
      a0:	1f be       	out	0x3f, r1	; 63
      a2:	cf e5       	ldi	r28, 0x5F	; 95
      a4:	d4 e0       	ldi	r29, 0x04	; 4
      a6:	de bf       	out	0x3e, r29	; 62
      a8:	cd bf       	out	0x3d, r28	; 61

000000aa <__do_copy_data>:
      aa:	10 e0       	ldi	r17, 0x00	; 0
      ac:	a0 e6       	ldi	r26, 0x60	; 96
      ae:	b0 e0       	ldi	r27, 0x00	; 0
      b0:	e4 ed       	ldi	r30, 0xD4	; 212
      b2:	f6 e1       	ldi	r31, 0x16	; 22
      b4:	02 c0       	rjmp	.+4      	; 0xba <__do_copy_data+0x10>
      b6:	05 90       	lpm	r0, Z+
      b8:	0d 92       	st	X+, r0
      ba:	a2 36       	cpi	r26, 0x62	; 98
      bc:	b1 07       	cpc	r27, r17
      be:	d9 f7       	brne	.-10     	; 0xb6 <__do_copy_data+0xc>

000000c0 <__do_clear_bss>:
      c0:	11 e0       	ldi	r17, 0x01	; 1
      c2:	a2 e6       	ldi	r26, 0x62	; 98
      c4:	b0 e0       	ldi	r27, 0x00	; 0
      c6:	01 c0       	rjmp	.+2      	; 0xca <.do_clear_bss_start>

000000c8 <.do_clear_bss_loop>:
      c8:	1d 92       	st	X+, r1

000000ca <.do_clear_bss_start>:
      ca:	ad 32       	cpi	r26, 0x2D	; 45
      cc:	b1 07       	cpc	r27, r17
      ce:	e1 f7       	brne	.-8      	; 0xc8 <.do_clear_bss_loop>
      d0:	88 da       	rcall	.-2800   	; 0xfffff5e2 <__eeprom_end+0xff7ef5e2>
      d2:	fe ca       	rjmp	.-2564   	; 0xfffff6d0 <__eeprom_end+0xff7ef6d0>

000000d4 <__bad_interrupt>:
      d4:	95 cf       	rjmp	.-214    	; 0x0 <__vectors>

000000d6 <twi_init>:
      d6:	11 b8       	out	0x01, r1	; 1
      d8:	8a e0       	ldi	r24, 0x0A	; 10
      da:	80 b9       	out	0x00, r24	; 0
      dc:	08 95       	ret

000000de <ee24cxxx_write_page>:
      de:	68 0f       	add	r22, r24
      e0:	79 1f       	adc	r23, r25
      e2:	9c 01       	movw	r18, r24
      e4:	2f 63       	ori	r18, 0x3F	; 63
      e6:	26 17       	cp	r18, r22
      e8:	37 07       	cpc	r19, r23
      ea:	18 f4       	brcc	.+6      	; 0xf2 <ee24cxxx_write_page+0x14>
      ec:	b9 01       	movw	r22, r18
      ee:	6f 5f       	subi	r22, 0xFF	; 255
      f0:	7f 4f       	sbci	r23, 0xFF	; 255
      f2:	a9 2f       	mov	r26, r25
      f4:	f4 ea       	ldi	r31, 0xA4	; 164
      f6:	e0 ea       	ldi	r30, 0xA0	; 160
      f8:	34 e8       	ldi	r19, 0x84	; 132
      fa:	f6 bf       	out	0x36, r31	; 54
      fc:	06 b6       	in	r0, 0x36	; 54
      fe:	07 fe       	sbrs	r0, 7
     100:	fd cf       	rjmp	.-6      	; 0xfc <ee24cxxx_write_page+0x1e>
     102:	21 b1       	in	r18, 0x01	; 1
     104:	28 7f       	andi	r18, 0xF8	; 248
     106:	20 93 ac 00 	sts	0x00AC, r18
     10a:	20 31       	cpi	r18, 0x10	; 16
     10c:	29 f0       	breq	.+10     	; 0x118 <ee24cxxx_write_page+0x3a>
     10e:	28 33       	cpi	r18, 0x38	; 56
     110:	a1 f3       	breq	.-24     	; 0xfa <ee24cxxx_write_page+0x1c>
     112:	28 30       	cpi	r18, 0x08	; 8
     114:	09 f0       	breq	.+2      	; 0x118 <ee24cxxx_write_page+0x3a>
     116:	55 c0       	rjmp	.+170    	; 0x1c2 <ee24cxxx_write_page+0xe4>
     118:	e3 b9       	out	0x03, r30	; 3
     11a:	36 bf       	out	0x36, r19	; 54
     11c:	06 b6       	in	r0, 0x36	; 54
     11e:	07 fe       	sbrs	r0, 7
     120:	fd cf       	rjmp	.-6      	; 0x11c <ee24cxxx_write_page+0x3e>
     122:	21 b1       	in	r18, 0x01	; 1
     124:	28 7f       	andi	r18, 0xF8	; 248
     126:	20 93 ac 00 	sts	0x00AC, r18
     12a:	20 32       	cpi	r18, 0x20	; 32
     12c:	31 f3       	breq	.-52     	; 0xfa <ee24cxxx_write_page+0x1c>
     12e:	28 33       	cpi	r18, 0x38	; 56
     130:	21 f3       	breq	.-56     	; 0xfa <ee24cxxx_write_page+0x1c>
     132:	28 31       	cpi	r18, 0x18	; 24
     134:	09 f0       	breq	.+2      	; 0x138 <ee24cxxx_write_page+0x5a>
     136:	40 c0       	rjmp	.+128    	; 0x1b8 <ee24cxxx_write_page+0xda>
     138:	a3 b9       	out	0x03, r26	; 3
     13a:	36 bf       	out	0x36, r19	; 54
     13c:	06 b6       	in	r0, 0x36	; 54
     13e:	07 fe       	sbrs	r0, 7
     140:	fd cf       	rjmp	.-6      	; 0x13c <ee24cxxx_write_page+0x5e>
     142:	21 b1       	in	r18, 0x01	; 1
     144:	28 7f       	andi	r18, 0xF8	; 248
     146:	20 93 ac 00 	sts	0x00AC, r18
     14a:	20 33       	cpi	r18, 0x30	; 48
     14c:	a1 f0       	breq	.+40     	; 0x176 <ee24cxxx_write_page+0x98>
     14e:	28 33       	cpi	r18, 0x38	; 56
     150:	a1 f2       	breq	.-88     	; 0xfa <ee24cxxx_write_page+0x1c>
     152:	28 32       	cpi	r18, 0x28	; 40
     154:	89 f5       	brne	.+98     	; 0x1b8 <ee24cxxx_write_page+0xda>
     156:	83 b9       	out	0x03, r24	; 3
     158:	36 bf       	out	0x36, r19	; 54
     15a:	06 b6       	in	r0, 0x36	; 54
     15c:	07 fe       	sbrs	r0, 7
     15e:	fd cf       	rjmp	.-6      	; 0x15a <ee24cxxx_write_page+0x7c>
     160:	21 b1       	in	r18, 0x01	; 1
     162:	28 7f       	andi	r18, 0xF8	; 248
     164:	20 93 ac 00 	sts	0x00AC, r18
     168:	20 33       	cpi	r18, 0x30	; 48
     16a:	29 f0       	breq	.+10     	; 0x176 <ee24cxxx_write_page+0x98>
     16c:	28 33       	cpi	r18, 0x38	; 56
     16e:	29 f2       	breq	.-118    	; 0xfa <ee24cxxx_write_page+0x1c>
     170:	28 32       	cpi	r18, 0x28	; 40
     172:	11 f5       	brne	.+68     	; 0x1b8 <ee24cxxx_write_page+0xda>
     174:	03 c0       	rjmp	.+6      	; 0x17c <ee24cxxx_write_page+0x9e>
     176:	20 e0       	ldi	r18, 0x00	; 0
     178:	30 e0       	ldi	r19, 0x00	; 0
     17a:	20 c0       	rjmp	.+64     	; 0x1bc <ee24cxxx_write_page+0xde>
     17c:	68 1b       	sub	r22, r24
     17e:	79 0b       	sbc	r23, r25
     180:	84 2f       	mov	r24, r20
     182:	95 2f       	mov	r25, r21
     184:	fc 01       	movw	r30, r24
     186:	20 e0       	ldi	r18, 0x00	; 0
     188:	30 e0       	ldi	r19, 0x00	; 0
     18a:	44 e8       	ldi	r20, 0x84	; 132
     18c:	0e c0       	rjmp	.+28     	; 0x1aa <ee24cxxx_write_page+0xcc>
     18e:	81 91       	ld	r24, Z+
     190:	83 b9       	out	0x03, r24	; 3
     192:	46 bf       	out	0x36, r20	; 54
     194:	06 b6       	in	r0, 0x36	; 54
     196:	07 fe       	sbrs	r0, 7
     198:	fd cf       	rjmp	.-6      	; 0x194 <ee24cxxx_write_page+0xb6>
     19a:	81 b1       	in	r24, 0x01	; 1
     19c:	88 7f       	andi	r24, 0xF8	; 248
     19e:	80 93 ac 00 	sts	0x00AC, r24
     1a2:	88 32       	cpi	r24, 0x28	; 40
     1a4:	49 f4       	brne	.+18     	; 0x1b8 <ee24cxxx_write_page+0xda>
     1a6:	2f 5f       	subi	r18, 0xFF	; 255
     1a8:	3f 4f       	sbci	r19, 0xFF	; 255
     1aa:	cb 01       	movw	r24, r22
     1ac:	82 1b       	sub	r24, r18
     1ae:	93 0b       	sbc	r25, r19
     1b0:	18 16       	cp	r1, r24
     1b2:	19 06       	cpc	r1, r25
     1b4:	64 f3       	brlt	.-40     	; 0x18e <ee24cxxx_write_page+0xb0>
     1b6:	02 c0       	rjmp	.+4      	; 0x1bc <ee24cxxx_write_page+0xde>
     1b8:	2f ef       	ldi	r18, 0xFF	; 255
     1ba:	3f ef       	ldi	r19, 0xFF	; 255
     1bc:	84 e9       	ldi	r24, 0x94	; 148
     1be:	86 bf       	out	0x36, r24	; 54
     1c0:	02 c0       	rjmp	.+4      	; 0x1c6 <ee24cxxx_write_page+0xe8>
     1c2:	2f ef       	ldi	r18, 0xFF	; 255
     1c4:	3f ef       	ldi	r19, 0xFF	; 255
     1c6:	c9 01       	movw	r24, r18
     1c8:	08 95       	ret

000001ca <ee24cxxx_write_bytes>:
     1ca:	cf 92       	push	r12
     1cc:	df 92       	push	r13
     1ce:	ef 92       	push	r14
     1d0:	ff 92       	push	r15
     1d2:	0f 93       	push	r16
     1d4:	1f 93       	push	r17
     1d6:	cf 93       	push	r28
     1d8:	df 93       	push	r29
     1da:	7c 01       	movw	r14, r24
     1dc:	eb 01       	movw	r28, r22
     1de:	6a 01       	movw	r12, r20
     1e0:	00 e0       	ldi	r16, 0x00	; 0
     1e2:	10 e0       	ldi	r17, 0x00	; 0
     1e4:	c7 01       	movw	r24, r14
     1e6:	be 01       	movw	r22, r28
     1e8:	a6 01       	movw	r20, r12
     1ea:	79 df       	rcall	.-270    	; 0xde <ee24cxxx_write_page>
     1ec:	2f ef       	ldi	r18, 0xFF	; 255
     1ee:	8f 3f       	cpi	r24, 0xFF	; 255
     1f0:	92 07       	cpc	r25, r18
     1f2:	61 f0       	breq	.+24     	; 0x20c <ee24cxxx_write_bytes+0x42>
     1f4:	c8 1b       	sub	r28, r24
     1f6:	d9 0b       	sbc	r29, r25
     1f8:	08 0f       	add	r16, r24
     1fa:	19 1f       	adc	r17, r25
     1fc:	1c 16       	cp	r1, r28
     1fe:	1d 06       	cpc	r1, r29
     200:	3c f4       	brge	.+14     	; 0x210 <ee24cxxx_write_bytes+0x46>
     202:	e8 0e       	add	r14, r24
     204:	f9 1e       	adc	r15, r25
     206:	c8 0e       	add	r12, r24
     208:	d9 1e       	adc	r13, r25
     20a:	ec cf       	rjmp	.-40     	; 0x1e4 <ee24cxxx_write_bytes+0x1a>
     20c:	0f ef       	ldi	r16, 0xFF	; 255
     20e:	1f ef       	ldi	r17, 0xFF	; 255
     210:	c8 01       	movw	r24, r16
     212:	df 91       	pop	r29
     214:	cf 91       	pop	r28
     216:	1f 91       	pop	r17
     218:	0f 91       	pop	r16
     21a:	ff 90       	pop	r15
     21c:	ef 90       	pop	r14
     21e:	df 90       	pop	r13
     220:	cf 90       	pop	r12
     222:	08 95       	ret

00000224 <ee24cxxx_read_bytes>:
     224:	fa 01       	movw	r30, r20
     226:	44 ea       	ldi	r20, 0xA4	; 164
     228:	a0 ea       	ldi	r26, 0xA0	; 160
     22a:	34 e8       	ldi	r19, 0x84	; 132
     22c:	51 ea       	ldi	r21, 0xA1	; 161
     22e:	46 bf       	out	0x36, r20	; 54
     230:	06 b6       	in	r0, 0x36	; 54
     232:	07 fe       	sbrs	r0, 7
     234:	fd cf       	rjmp	.-6      	; 0x230 <ee24cxxx_read_bytes+0xc>
     236:	21 b1       	in	r18, 0x01	; 1
     238:	28 7f       	andi	r18, 0xF8	; 248
     23a:	20 93 ac 00 	sts	0x00AC, r18
     23e:	20 31       	cpi	r18, 0x10	; 16
     240:	29 f0       	breq	.+10     	; 0x24c <ee24cxxx_read_bytes+0x28>
     242:	28 33       	cpi	r18, 0x38	; 56
     244:	a1 f3       	breq	.-24     	; 0x22e <ee24cxxx_read_bytes+0xa>
     246:	28 30       	cpi	r18, 0x08	; 8
     248:	09 f0       	breq	.+2      	; 0x24c <ee24cxxx_read_bytes+0x28>
     24a:	7c c0       	rjmp	.+248    	; 0x344 <ee24cxxx_read_bytes+0x120>
     24c:	a3 b9       	out	0x03, r26	; 3
     24e:	36 bf       	out	0x36, r19	; 54
     250:	06 b6       	in	r0, 0x36	; 54
     252:	07 fe       	sbrs	r0, 7
     254:	fd cf       	rjmp	.-6      	; 0x250 <ee24cxxx_read_bytes+0x2c>
     256:	21 b1       	in	r18, 0x01	; 1
     258:	28 7f       	andi	r18, 0xF8	; 248
     25a:	20 93 ac 00 	sts	0x00AC, r18
     25e:	20 32       	cpi	r18, 0x20	; 32
     260:	31 f3       	breq	.-52     	; 0x22e <ee24cxxx_read_bytes+0xa>
     262:	28 33       	cpi	r18, 0x38	; 56
     264:	21 f3       	breq	.-56     	; 0x22e <ee24cxxx_read_bytes+0xa>
     266:	28 31       	cpi	r18, 0x18	; 24
     268:	09 f0       	breq	.+2      	; 0x26c <ee24cxxx_read_bytes+0x48>
     26a:	67 c0       	rjmp	.+206    	; 0x33a <ee24cxxx_read_bytes+0x116>
     26c:	93 b9       	out	0x03, r25	; 3
     26e:	36 bf       	out	0x36, r19	; 54
     270:	06 b6       	in	r0, 0x36	; 54
     272:	07 fe       	sbrs	r0, 7
     274:	fd cf       	rjmp	.-6      	; 0x270 <ee24cxxx_read_bytes+0x4c>
     276:	21 b1       	in	r18, 0x01	; 1
     278:	28 7f       	andi	r18, 0xF8	; 248
     27a:	20 93 ac 00 	sts	0x00AC, r18
     27e:	20 33       	cpi	r18, 0x30	; 48
     280:	c1 f1       	breq	.+112    	; 0x2f2 <ee24cxxx_read_bytes+0xce>
     282:	28 33       	cpi	r18, 0x38	; 56
     284:	a1 f2       	breq	.-88     	; 0x22e <ee24cxxx_read_bytes+0xa>
     286:	28 32       	cpi	r18, 0x28	; 40
     288:	09 f0       	breq	.+2      	; 0x28c <ee24cxxx_read_bytes+0x68>
     28a:	57 c0       	rjmp	.+174    	; 0x33a <ee24cxxx_read_bytes+0x116>
     28c:	83 b9       	out	0x03, r24	; 3
     28e:	36 bf       	out	0x36, r19	; 54
     290:	06 b6       	in	r0, 0x36	; 54
     292:	07 fe       	sbrs	r0, 7
     294:	fd cf       	rjmp	.-6      	; 0x290 <ee24cxxx_read_bytes+0x6c>
     296:	21 b1       	in	r18, 0x01	; 1
     298:	28 7f       	andi	r18, 0xF8	; 248
     29a:	20 93 ac 00 	sts	0x00AC, r18
     29e:	20 33       	cpi	r18, 0x30	; 48
     2a0:	41 f1       	breq	.+80     	; 0x2f2 <ee24cxxx_read_bytes+0xce>
     2a2:	28 33       	cpi	r18, 0x38	; 56
     2a4:	21 f2       	breq	.-120    	; 0x22e <ee24cxxx_read_bytes+0xa>
     2a6:	28 32       	cpi	r18, 0x28	; 40
     2a8:	09 f0       	breq	.+2      	; 0x2ac <ee24cxxx_read_bytes+0x88>
     2aa:	47 c0       	rjmp	.+142    	; 0x33a <ee24cxxx_read_bytes+0x116>
     2ac:	46 bf       	out	0x36, r20	; 54
     2ae:	06 b6       	in	r0, 0x36	; 54
     2b0:	07 fe       	sbrs	r0, 7
     2b2:	fd cf       	rjmp	.-6      	; 0x2ae <ee24cxxx_read_bytes+0x8a>
     2b4:	21 b1       	in	r18, 0x01	; 1
     2b6:	28 7f       	andi	r18, 0xF8	; 248
     2b8:	20 93 ac 00 	sts	0x00AC, r18
     2bc:	20 31       	cpi	r18, 0x10	; 16
     2be:	29 f0       	breq	.+10     	; 0x2ca <ee24cxxx_read_bytes+0xa6>
     2c0:	28 33       	cpi	r18, 0x38	; 56
     2c2:	09 f4       	brne	.+2      	; 0x2c6 <ee24cxxx_read_bytes+0xa2>
     2c4:	b4 cf       	rjmp	.-152    	; 0x22e <ee24cxxx_read_bytes+0xa>
     2c6:	28 30       	cpi	r18, 0x08	; 8
     2c8:	c1 f5       	brne	.+112    	; 0x33a <ee24cxxx_read_bytes+0x116>
     2ca:	53 b9       	out	0x03, r21	; 3
     2cc:	36 bf       	out	0x36, r19	; 54
     2ce:	06 b6       	in	r0, 0x36	; 54
     2d0:	07 fe       	sbrs	r0, 7
     2d2:	fd cf       	rjmp	.-6      	; 0x2ce <ee24cxxx_read_bytes+0xaa>
     2d4:	21 b1       	in	r18, 0x01	; 1
     2d6:	28 7f       	andi	r18, 0xF8	; 248
     2d8:	20 93 ac 00 	sts	0x00AC, r18
     2dc:	20 34       	cpi	r18, 0x40	; 64
     2de:	29 f0       	breq	.+10     	; 0x2ea <ee24cxxx_read_bytes+0xc6>
     2e0:	28 34       	cpi	r18, 0x48	; 72
     2e2:	39 f0       	breq	.+14     	; 0x2f2 <ee24cxxx_read_bytes+0xce>
     2e4:	28 33       	cpi	r18, 0x38	; 56
     2e6:	49 f5       	brne	.+82     	; 0x33a <ee24cxxx_read_bytes+0x116>
     2e8:	a2 cf       	rjmp	.-188    	; 0x22e <ee24cxxx_read_bytes+0xa>
     2ea:	81 e0       	ldi	r24, 0x01	; 1
     2ec:	90 e0       	ldi	r25, 0x00	; 0
     2ee:	44 ec       	ldi	r20, 0xC4	; 196
     2f0:	1d c0       	rjmp	.+58     	; 0x32c <ee24cxxx_read_bytes+0x108>
     2f2:	20 e0       	ldi	r18, 0x00	; 0
     2f4:	30 e0       	ldi	r19, 0x00	; 0
     2f6:	23 c0       	rjmp	.+70     	; 0x33e <ee24cxxx_read_bytes+0x11a>
     2f8:	61 30       	cpi	r22, 0x01	; 1
     2fa:	71 05       	cpc	r23, r1
     2fc:	09 f4       	brne	.+2      	; 0x300 <ee24cxxx_read_bytes+0xdc>
     2fe:	44 e8       	ldi	r20, 0x84	; 132
     300:	46 bf       	out	0x36, r20	; 54
     302:	06 b6       	in	r0, 0x36	; 54
     304:	07 fe       	sbrs	r0, 7
     306:	fd cf       	rjmp	.-6      	; 0x302 <ee24cxxx_read_bytes+0xde>
     308:	21 b1       	in	r18, 0x01	; 1
     30a:	28 7f       	andi	r18, 0xF8	; 248
     30c:	20 93 ac 00 	sts	0x00AC, r18
     310:	20 35       	cpi	r18, 0x50	; 80
     312:	39 f0       	breq	.+14     	; 0x322 <ee24cxxx_read_bytes+0xfe>
     314:	28 35       	cpi	r18, 0x58	; 88
     316:	89 f4       	brne	.+34     	; 0x33a <ee24cxxx_read_bytes+0x116>
     318:	23 b1       	in	r18, 0x03	; 3
     31a:	20 83       	st	Z, r18
     31c:	60 e0       	ldi	r22, 0x00	; 0
     31e:	70 e0       	ldi	r23, 0x00	; 0
     320:	02 c0       	rjmp	.+4      	; 0x326 <ee24cxxx_read_bytes+0x102>
     322:	23 b1       	in	r18, 0x03	; 3
     324:	21 93       	st	Z+, r18
     326:	61 50       	subi	r22, 0x01	; 1
     328:	70 40       	sbci	r23, 0x00	; 0
     32a:	01 96       	adiw	r24, 0x01	; 1
     32c:	9c 01       	movw	r18, r24
     32e:	21 50       	subi	r18, 0x01	; 1
     330:	30 40       	sbci	r19, 0x00	; 0
     332:	16 16       	cp	r1, r22
     334:	17 06       	cpc	r1, r23
     336:	04 f3       	brlt	.-64     	; 0x2f8 <ee24cxxx_read_bytes+0xd4>
     338:	02 c0       	rjmp	.+4      	; 0x33e <ee24cxxx_read_bytes+0x11a>
     33a:	2f ef       	ldi	r18, 0xFF	; 255
     33c:	3f ef       	ldi	r19, 0xFF	; 255
     33e:	84 e9       	ldi	r24, 0x94	; 148
     340:	86 bf       	out	0x36, r24	; 54
     342:	02 c0       	rjmp	.+4      	; 0x348 <ee24cxxx_read_bytes+0x124>
     344:	2f ef       	ldi	r18, 0xFF	; 255
     346:	3f ef       	ldi	r19, 0xFF	; 255
     348:	c9 01       	movw	r24, r18
     34a:	08 95       	ret

0000034c <i2c_delay_T2>:
;*************************************************************************
	.stabs	"",100,0,0,i2c_delay_T2
	.stabs	"i2cmaster.S",100,0,0,i2c_delay_T2
	.func i2c_delay_T2	; delay 5.0 microsec with 4 Mhz crystal	
i2c_delay_T2:        ; 4 cycles
	rjmp 1f      ; 2   "
     34c:	00 c0       	rjmp	.+0      	; 0x34e <i2c_delay_T2+0x2>
1:	rjmp 2f      ; 2   "
     34e:	00 c0       	rjmp	.+0      	; 0x350 <i2c_delay_T2+0x4>
2:	rjmp 3f      ; 2   "
     350:	00 c0       	rjmp	.+0      	; 0x352 <i2c_delay_T2+0x6>
3:	rjmp 4f      ; 2   "
     352:	00 c0       	rjmp	.+0      	; 0x354 <i2c_delay_T2+0x8>
4:	rjmp 5f      ; 2   "
     354:	00 c0       	rjmp	.+0      	; 0x356 <i2c_delay_T2+0xa>
5: 	rjmp 6f      ; 2   "
     356:	00 c0       	rjmp	.+0      	; 0x358 <i2c_delay_T2+0xc>
6:	nop          ; 1   "
     358:	00 00       	nop
	ret          ; 3   "
     35a:	08 95       	ret

0000035c <i2c_init>:
; extern void i2c_init(void)
;*************************************************************************
	.global i2c_init
	.func i2c_init
i2c_init:
	cbi SDA_DDR,SDA		;release SDA
     35c:	8c 98       	cbi	0x11, 4	; 17
	cbi SCL_DDR,SCL		;release SCL
     35e:	8d 98       	cbi	0x11, 5	; 17
	cbi SDA_OUT,SDA
     360:	94 98       	cbi	0x12, 4	; 18
	cbi SCL_OUT,SCL
     362:	95 98       	cbi	0x12, 5	; 18
	ret
     364:	08 95       	ret

00000366 <i2c_start>:
;*************************************************************************

	.global i2c_start
	.func   i2c_start
i2c_start:
	sbi 	SDA_DDR,SDA	;force SDA low
     366:	8c 9a       	sbi	0x11, 4	; 17
	rcall 	i2c_delay_T2	;delay T/2
     368:	f1 df       	rcall	.-30     	; 0x34c <i2c_delay_T2>
	
	rcall 	i2c_write	;write address
     36a:	1d d0       	rcall	.+58     	; 0x3a6 <i2c_write>
	ret
     36c:	08 95       	ret

0000036e <i2c_rep_start>:
;*************************************************************************

	.global i2c_rep_start
	.func	i2c_rep_start
i2c_rep_start:
	sbi	SCL_DDR,SCL	;force SCL low
     36e:	8d 9a       	sbi	0x11, 5	; 17
	rcall 	i2c_delay_T2	;delay  T/2
     370:	ed df       	rcall	.-38     	; 0x34c <i2c_delay_T2>
	cbi	SDA_DDR,SDA	;release SDA
     372:	8c 98       	cbi	0x11, 4	; 17
	rcall	i2c_delay_T2	;delay T/2
     374:	eb df       	rcall	.-42     	; 0x34c <i2c_delay_T2>
	cbi	SCL_DDR,SCL	;release SCL
     376:	8d 98       	cbi	0x11, 5	; 17
	rcall 	i2c_delay_T2	;delay  T/2
     378:	e9 df       	rcall	.-46     	; 0x34c <i2c_delay_T2>
	sbi 	SDA_DDR,SDA	;force SDA low
     37a:	8c 9a       	sbi	0x11, 4	; 17
	rcall 	i2c_delay_T2	;delay	T/2
     37c:	e7 df       	rcall	.-50     	; 0x34c <i2c_delay_T2>
	
	rcall	i2c_write	;write address
     37e:	13 d0       	rcall	.+38     	; 0x3a6 <i2c_write>
	ret
     380:	08 95       	ret

00000382 <i2c_start_wait>:
;*************************************************************************

	.global i2c_start_wait
	.func   i2c_start_wait
i2c_start_wait:
	mov	__tmp_reg__,r24
     382:	08 2e       	mov	r0, r24

00000384 <i2c_start_wait1>:
i2c_start_wait1:
	sbi 	SDA_DDR,SDA	;force SDA low
     384:	8c 9a       	sbi	0x11, 4	; 17
	rcall 	i2c_delay_T2	;delay T/2
     386:	e2 df       	rcall	.-60     	; 0x34c <i2c_delay_T2>
	mov	r24,__tmp_reg__
     388:	80 2d       	mov	r24, r0
	rcall 	i2c_write	;write address
     38a:	0d d0       	rcall	.+26     	; 0x3a6 <i2c_write>
	tst	r24		;if device not busy -> done
     38c:	88 23       	and	r24, r24
	breq	i2c_start_wait_done
     38e:	11 f0       	breq	.+4      	; 0x394 <i2c_start_wait_done>
	rcall	i2c_stop	;terminate write operation
     390:	02 d0       	rcall	.+4      	; 0x396 <i2c_stop>
	rjmp	i2c_start_wait1	;device busy, poll ack again
     392:	f8 cf       	rjmp	.-16     	; 0x384 <i2c_start_wait1>

00000394 <i2c_start_wait_done>:
i2c_start_wait_done:
	ret
     394:	08 95       	ret

00000396 <i2c_stop>:
;*************************************************************************

	.global	i2c_stop
	.func	i2c_stop
i2c_stop:
	sbi	SCL_DDR,SCL	;force SCL low
     396:	8d 9a       	sbi	0x11, 5	; 17
	sbi	SDA_DDR,SDA	;force SDA low
     398:	8c 9a       	sbi	0x11, 4	; 17
	rcall	i2c_delay_T2	;delay T/2
     39a:	d8 df       	rcall	.-80     	; 0x34c <i2c_delay_T2>
	cbi	SCL_DDR,SCL	;release SCL
     39c:	8d 98       	cbi	0x11, 5	; 17
	rcall	i2c_delay_T2	;delay T/2
     39e:	d6 df       	rcall	.-84     	; 0x34c <i2c_delay_T2>
	cbi	SDA_DDR,SDA	;release SDA
     3a0:	8c 98       	cbi	0x11, 4	; 17
	rcall	i2c_delay_T2	;delay T/2
     3a2:	d4 df       	rcall	.-88     	; 0x34c <i2c_delay_T2>
	ret
     3a4:	08 95       	ret

000003a6 <i2c_write>:
;	data = r24,  return = r25(=0):r24
;*************************************************************************
	.global i2c_write
	.func	i2c_write
i2c_write:
	sec			;set carry flag
     3a6:	08 94       	sec
	rol 	r24		;shift in carry and out bit one
     3a8:	88 1f       	adc	r24, r24
	rjmp	i2c_write_first
     3aa:	01 c0       	rjmp	.+2      	; 0x3ae <i2c_write_first>

000003ac <i2c_write_bit>:
i2c_write_bit:
	lsl	r24		;if transmit register empty
     3ac:	88 0f       	add	r24, r24

000003ae <i2c_write_first>:
i2c_write_first:
	breq	i2c_get_ack
     3ae:	59 f0       	breq	.+22     	; 0x3c6 <i2c_get_ack>
	sbi	SCL_DDR,SCL	;force SCL low
     3b0:	8d 9a       	sbi	0x11, 5	; 17
	brcc	i2c_write_low
     3b2:	18 f4       	brcc	.+6      	; 0x3ba <i2c_write_low>
	nop
     3b4:	00 00       	nop
	cbi	SDA_DDR,SDA	;release SDA
     3b6:	8c 98       	cbi	0x11, 4	; 17
	rjmp	i2c_write_high
     3b8:	02 c0       	rjmp	.+4      	; 0x3be <i2c_write_high>

000003ba <i2c_write_low>:
i2c_write_low:
	sbi	SDA_DDR,SDA	;force SDA low
     3ba:	8c 9a       	sbi	0x11, 4	; 17
	rjmp	i2c_write_high
     3bc:	00 c0       	rjmp	.+0      	; 0x3be <i2c_write_high>

000003be <i2c_write_high>:
i2c_write_high:
	rcall 	i2c_delay_T2	;delay T/2
     3be:	c6 df       	rcall	.-116    	; 0x34c <i2c_delay_T2>
	cbi	SCL_DDR,SCL	;release SCL
     3c0:	8d 98       	cbi	0x11, 5	; 17
	rcall	i2c_delay_T2	;delay T/2
     3c2:	c4 df       	rcall	.-120    	; 0x34c <i2c_delay_T2>
	rjmp	i2c_write_bit
     3c4:	f3 cf       	rjmp	.-26     	; 0x3ac <i2c_write_bit>

000003c6 <i2c_get_ack>:
	
i2c_get_ack:
	sbi	SCL_DDR,SCL	;force SCL low
     3c6:	8d 9a       	sbi	0x11, 5	; 17
	cbi	SDA_DDR,SDA	;release SDA
     3c8:	8c 98       	cbi	0x11, 4	; 17
	rcall	i2c_delay_T2	;delay T/2
     3ca:	c0 df       	rcall	.-128    	; 0x34c <i2c_delay_T2>
	cbi	SCL_DDR,SCL	;release SCL
     3cc:	8d 98       	cbi	0x11, 5	; 17

000003ce <i2c_ack_wait>:
i2c_ack_wait:
	sbis	SCL_IN,SCL	;wait SCL high (in case wait states are inserted)
     3ce:	85 9b       	sbis	0x10, 5	; 16
	rjmp	i2c_ack_wait
     3d0:	fe cf       	rjmp	.-4      	; 0x3ce <i2c_ack_wait>
	
	clr	r24		;return 0
     3d2:	88 27       	eor	r24, r24
	sbic	SDA_IN,SDA	;if SDA high -> return 1
     3d4:	84 99       	sbic	0x10, 4	; 16
	ldi	r24,1
     3d6:	81 e0       	ldi	r24, 0x01	; 1
	rcall	i2c_delay_T2	;delay T/2
     3d8:	b9 df       	rcall	.-142    	; 0x34c <i2c_delay_T2>
	clr	r25
     3da:	99 27       	eor	r25, r25
	ret
     3dc:	08 95       	ret

000003de <i2c_readNak>:
	.global i2c_readAck
	.global i2c_readNak
	.global i2c_read		
	.func	i2c_read
i2c_readNak:
	clr	r24
     3de:	88 27       	eor	r24, r24
	rjmp	i2c_read
     3e0:	01 c0       	rjmp	.+2      	; 0x3e4 <i2c_read>

000003e2 <i2c_readAck>:
i2c_readAck:
	ldi	r24,0x01
     3e2:	81 e0       	ldi	r24, 0x01	; 1

000003e4 <i2c_read>:
i2c_read:
	ldi	r23,0x01	;data = 0x01
     3e4:	71 e0       	ldi	r23, 0x01	; 1

000003e6 <i2c_read_bit>:
i2c_read_bit:
	sbi	SCL_DDR,SCL	;force SCL low
     3e6:	8d 9a       	sbi	0x11, 5	; 17
	cbi	SDA_DDR,SDA	;release SDA (from previous ACK)
     3e8:	8c 98       	cbi	0x11, 4	; 17
	rcall	i2c_delay_T2	;delay T/2
     3ea:	b0 df       	rcall	.-160    	; 0x34c <i2c_delay_T2>
	
	cbi	SCL_DDR,SCL	;release SCL
     3ec:	8d 98       	cbi	0x11, 5	; 17
	rcall	i2c_delay_T2	;delay T/2
     3ee:	ae df       	rcall	.-164    	; 0x34c <i2c_delay_T2>

000003f0 <i2c_read_stretch>:
	
i2c_read_stretch:
    sbis SCL_IN, SCL        ;loop until SCL is high (allow slave to stretch SCL)
     3f0:	85 9b       	sbis	0x10, 5	; 16
    rjmp	i2c_read_stretch
     3f2:	fe cf       	rjmp	.-4      	; 0x3f0 <i2c_read_stretch>
    	
	clc			;clear carry flag
     3f4:	88 94       	clc
	sbic	SDA_IN,SDA	;if SDA is high
     3f6:	84 99       	sbic	0x10, 4	; 16
	sec			;  set carry flag
     3f8:	08 94       	sec
	
	rol	r23		;store bit
     3fa:	77 1f       	adc	r23, r23
	brcc	i2c_read_bit	;while receive register not full
     3fc:	a0 f7       	brcc	.-24     	; 0x3e6 <i2c_read_bit>

000003fe <i2c_put_ack>:
	
i2c_put_ack:
	sbi	SCL_DDR,SCL	;force SCL low	
     3fe:	8d 9a       	sbi	0x11, 5	; 17
	cpi	r24,1
     400:	81 30       	cpi	r24, 0x01	; 1
	breq	i2c_put_ack_low	;if (ack=0)
     402:	11 f0       	breq	.+4      	; 0x408 <i2c_put_ack_low>
	cbi	SDA_DDR,SDA	;      release SDA
     404:	8c 98       	cbi	0x11, 4	; 17
	rjmp	i2c_put_ack_high
     406:	01 c0       	rjmp	.+2      	; 0x40a <i2c_put_ack_high>

00000408 <i2c_put_ack_low>:
i2c_put_ack_low:                ;else
	sbi	SDA_DDR,SDA	;      force SDA low
     408:	8c 9a       	sbi	0x11, 4	; 17

0000040a <i2c_put_ack_high>:
i2c_put_ack_high:
	rcall	i2c_delay_T2	;delay T/2
     40a:	a0 df       	rcall	.-192    	; 0x34c <i2c_delay_T2>
	cbi	SCL_DDR,SCL	;release SCL
     40c:	8d 98       	cbi	0x11, 5	; 17

0000040e <i2c_put_ack_wait>:
i2c_put_ack_wait:
	sbis	SCL_IN,SCL	;wait SCL high
     40e:	85 9b       	sbis	0x10, 5	; 16
	rjmp	i2c_put_ack_wait
     410:	fe cf       	rjmp	.-4      	; 0x40e <i2c_put_ack_wait>
	rcall	i2c_delay_T2	;delay T/2
     412:	9c df       	rcall	.-200    	; 0x34c <i2c_delay_T2>
	mov	r24,r23
     414:	87 2f       	mov	r24, r23
	clr	r25
     416:	99 27       	eor	r25, r25
	ret
     418:	08 95       	ret

0000041a <writePage64>:
     41a:	a0 df       	rcall	.-192    	; 0x35c <i2c_init>
     41c:	80 ea       	ldi	r24, 0xA0	; 160
     41e:	b1 df       	rcall	.-158    	; 0x382 <i2c_start_wait>
     420:	85 e0       	ldi	r24, 0x05	; 5
     422:	c1 df       	rcall	.-126    	; 0x3a6 <i2c_write>
     424:	85 e7       	ldi	r24, 0x75	; 117
     426:	bf df       	rcall	.-130    	; 0x3a6 <i2c_write>
     428:	b6 df       	rcall	.-148    	; 0x396 <i2c_stop>
     42a:	08 95       	ret

0000042c <checkCRC16>:
     42c:	ef 92       	push	r14
     42e:	ff 92       	push	r15
     430:	0f 93       	push	r16
     432:	1f 93       	push	r17
     434:	df 93       	push	r29
     436:	cf 93       	push	r28
     438:	cd b7       	in	r28, 0x3d	; 61
     43a:	de b7       	in	r29, 0x3e	; 62
     43c:	e8 97       	sbiw	r28, 0x38	; 56
     43e:	0f b6       	in	r0, 0x3f	; 63
     440:	f8 94       	cli
     442:	de bf       	out	0x3e, r29	; 62
     444:	0f be       	out	0x3f, r0	; 63
     446:	cd bf       	out	0x3d, r28	; 61
     448:	7c 01       	movw	r14, r24
     44a:	8e 01       	movw	r16, r28
     44c:	0f 5f       	subi	r16, 0xFF	; 255
     44e:	1f 4f       	sbci	r17, 0xFF	; 255
     450:	c8 01       	movw	r24, r16
     452:	68 e3       	ldi	r22, 0x38	; 56
     454:	70 e0       	ldi	r23, 0x00	; 0
     456:	40 e0       	ldi	r20, 0x00	; 0
     458:	45 d1       	rcall	.+650    	; 0x6e4 <makeNullArray>
     45a:	d7 01       	movw	r26, r14
     45c:	1b 96       	adiw	r26, 0x0b	; 11
     45e:	f8 01       	movw	r30, r16
     460:	ce 01       	movw	r24, r28
     462:	c9 96       	adiw	r24, 0x39	; 57
     464:	2d 91       	ld	r18, X+
     466:	21 93       	st	Z+, r18
     468:	e8 17       	cp	r30, r24
     46a:	f9 07       	cpc	r31, r25
     46c:	d9 f7       	brne	.-10     	; 0x464 <__stack+0x5>
     46e:	f7 01       	movw	r30, r14
     470:	01 85       	ldd	r16, Z+9	; 0x09
     472:	12 85       	ldd	r17, Z+10	; 0x0a
     474:	ce 01       	movw	r24, r28
     476:	01 96       	adiw	r24, 0x01	; 1
     478:	68 e3       	ldi	r22, 0x38	; 56
     47a:	70 e0       	ldi	r23, 0x00	; 0
     47c:	74 d1       	rcall	.+744    	; 0x766 <Crc16_clc>
     47e:	21 e0       	ldi	r18, 0x01	; 1
     480:	08 17       	cp	r16, r24
     482:	19 07       	cpc	r17, r25
     484:	09 f0       	breq	.+2      	; 0x488 <__stack+0x29>
     486:	20 e0       	ldi	r18, 0x00	; 0
     488:	82 2f       	mov	r24, r18
     48a:	e8 96       	adiw	r28, 0x38	; 56
     48c:	0f b6       	in	r0, 0x3f	; 63
     48e:	f8 94       	cli
     490:	de bf       	out	0x3e, r29	; 62
     492:	0f be       	out	0x3f, r0	; 63
     494:	cd bf       	out	0x3d, r28	; 61
     496:	cf 91       	pop	r28
     498:	df 91       	pop	r29
     49a:	1f 91       	pop	r17
     49c:	0f 91       	pop	r16
     49e:	ff 90       	pop	r15
     4a0:	ef 90       	pop	r14
     4a2:	08 95       	ret

000004a4 <Analyser>:
     4a4:	cf 93       	push	r28
     4a6:	df 93       	push	r29
     4a8:	ec 01       	movw	r28, r24
     4aa:	c0 df       	rcall	.-128    	; 0x42c <checkCRC16>
     4ac:	88 23       	and	r24, r24
     4ae:	19 f4       	brne	.+6      	; 0x4b6 <Analyser+0x12>
     4b0:	8b 81       	ldd	r24, Y+3	; 0x03
     4b2:	66 e1       	ldi	r22, 0x16	; 22
     4b4:	0b c0       	rjmp	.+22     	; 0x4cc <Analyser+0x28>
     4b6:	89 81       	ldd	r24, Y+1	; 0x01
     4b8:	8a 3f       	cpi	r24, 0xFA	; 250
     4ba:	19 f4       	brne	.+6      	; 0x4c2 <Analyser+0x1e>
     4bc:	ce 01       	movw	r24, r28
     4be:	8a d2       	rcall	.+1300   	; 0x9d4 <idenProc>
     4c0:	29 c0       	rjmp	.+82     	; 0x514 <Analyser+0x70>
     4c2:	98 81       	ld	r25, Y
     4c4:	99 23       	and	r25, r25
     4c6:	21 f4       	brne	.+8      	; 0x4d0 <Analyser+0x2c>
     4c8:	8b 81       	ldd	r24, Y+3	; 0x03
     4ca:	6c e0       	ldi	r22, 0x0C	; 12
     4cc:	3a d2       	rcall	.+1140   	; 0x942 <uAcknowledgeToHost>
     4ce:	22 c0       	rjmp	.+68     	; 0x514 <Analyser+0x70>
     4d0:	84 36       	cpi	r24, 0x64	; 100
     4d2:	89 f0       	breq	.+34     	; 0x4f6 <Analyser+0x52>
     4d4:	85 36       	cpi	r24, 0x65	; 101
     4d6:	28 f4       	brcc	.+10     	; 0x4e2 <Analyser+0x3e>
     4d8:	8a 30       	cpi	r24, 0x0A	; 10
     4da:	81 f0       	breq	.+32     	; 0x4fc <Analyser+0x58>
     4dc:	82 33       	cpi	r24, 0x32	; 50
     4de:	c9 f4       	brne	.+50     	; 0x512 <Analyser+0x6e>
     4e0:	07 c0       	rjmp	.+14     	; 0x4f0 <Analyser+0x4c>
     4e2:	82 3d       	cpi	r24, 0xD2	; 210
     4e4:	a1 f0       	breq	.+40     	; 0x50e <Analyser+0x6a>
     4e6:	8a 3f       	cpi	r24, 0xFA	; 250
     4e8:	79 f0       	breq	.+30     	; 0x508 <Analyser+0x64>
     4ea:	88 3c       	cpi	r24, 0xC8	; 200
     4ec:	91 f4       	brne	.+36     	; 0x512 <Analyser+0x6e>
     4ee:	09 c0       	rjmp	.+18     	; 0x502 <Analyser+0x5e>
     4f0:	ce 01       	movw	r24, r28
     4f2:	86 d3       	rcall	.+1804   	; 0xc00 <partialOutPutToHost>
     4f4:	0e c0       	rjmp	.+28     	; 0x512 <Analyser+0x6e>
     4f6:	ce 01       	movw	r24, r28
     4f8:	5a d3       	rcall	.+1716   	; 0xbae <sequentialWriteToEeprom>
     4fa:	0b c0       	rjmp	.+22     	; 0x512 <Analyser+0x6e>
     4fc:	ce 01       	movw	r24, r28
     4fe:	17 d3       	rcall	.+1582   	; 0xb2e <eraseExternalEeprom>
     500:	08 c0       	rjmp	.+16     	; 0x512 <Analyser+0x6e>
     502:	ce 01       	movw	r24, r28
     504:	d1 d2       	rcall	.+1442   	; 0xaa8 <writeMD5>
     506:	05 c0       	rjmp	.+10     	; 0x512 <Analyser+0x6e>
     508:	ce 01       	movw	r24, r28
     50a:	64 d2       	rcall	.+1224   	; 0x9d4 <idenProc>
     50c:	02 c0       	rjmp	.+4      	; 0x512 <Analyser+0x6e>
     50e:	ce 01       	movw	r24, r28
     510:	47 d2       	rcall	.+1166   	; 0x9a0 <eraseMD5keys>
     512:	1c 82       	std	Y+4, r1	; 0x04
     514:	df 91       	pop	r29
     516:	cf 91       	pop	r28
     518:	08 95       	ret

0000051a <Factory>:
     51a:	cf 92       	push	r12
     51c:	df 92       	push	r13
     51e:	ff 92       	push	r15
     520:	0f 93       	push	r16
     522:	1f 93       	push	r17
     524:	cf 93       	push	r28
     526:	df 93       	push	r29
     528:	fc 01       	movw	r30, r24
     52a:	6a 01       	movw	r12, r20
     52c:	e9 01       	movw	r28, r18
     52e:	c8 01       	movw	r24, r16
     530:	78 81       	ld	r23, Y
     532:	77 23       	and	r23, r23
     534:	09 f4       	brne	.+2      	; 0x538 <Factory+0x1e>
     536:	67 c0       	rjmp	.+206    	; 0x606 <Factory+0xec>
     538:	67 17       	cp	r22, r23
     53a:	08 f4       	brcc	.+2      	; 0x53e <Factory+0x24>
     53c:	76 2f       	mov	r23, r22
     53e:	d6 01       	movw	r26, r12
     540:	2c 91       	ld	r18, X
     542:	22 23       	and	r18, r18
     544:	39 f0       	breq	.+14     	; 0x554 <Factory+0x3a>
     546:	8f 01       	movw	r16, r30
     548:	20 e0       	ldi	r18, 0x00	; 0
     54a:	30 e0       	ldi	r19, 0x00	; 0
     54c:	fc 01       	movw	r30, r24
     54e:	ed 5b       	subi	r30, 0xBD	; 189
     550:	ff 4f       	sbci	r31, 0xFF	; 255
     552:	3f c0       	rjmp	.+126    	; 0x5d2 <Factory+0xb8>
     554:	20 81       	ld	r18, Z
     556:	dc 01       	movw	r26, r24
     558:	13 96       	adiw	r26, 0x03	; 3
     55a:	2c 93       	st	X, r18
     55c:	13 97       	sbiw	r26, 0x03	; 3
     55e:	21 81       	ldd	r18, Z+1	; 0x01
     560:	11 96       	adiw	r26, 0x01	; 1
     562:	2c 93       	st	X, r18
     564:	11 97       	sbiw	r26, 0x01	; 1
     566:	53 81       	ldd	r21, Z+3	; 0x03
     568:	40 e0       	ldi	r20, 0x00	; 0
     56a:	22 81       	ldd	r18, Z+2	; 0x02
     56c:	30 e0       	ldi	r19, 0x00	; 0
     56e:	24 2b       	or	r18, r20
     570:	35 2b       	or	r19, r21
     572:	1a 96       	adiw	r26, 0x0a	; 10
     574:	3c 93       	st	X, r19
     576:	2e 93       	st	-X, r18
     578:	19 97       	sbiw	r26, 0x09	; 9
     57a:	55 81       	ldd	r21, Z+5	; 0x05
     57c:	40 e0       	ldi	r20, 0x00	; 0
     57e:	24 81       	ldd	r18, Z+4	; 0x04
     580:	30 e0       	ldi	r19, 0x00	; 0
     582:	24 2b       	or	r18, r20
     584:	35 2b       	or	r19, r21
     586:	16 96       	adiw	r26, 0x06	; 6
     588:	3c 93       	st	X, r19
     58a:	2e 93       	st	-X, r18
     58c:	15 97       	sbiw	r26, 0x05	; 5
     58e:	57 81       	ldd	r21, Z+7	; 0x07
     590:	40 e0       	ldi	r20, 0x00	; 0
     592:	26 81       	ldd	r18, Z+6	; 0x06
     594:	30 e0       	ldi	r19, 0x00	; 0
     596:	24 2b       	or	r18, r20
     598:	35 2b       	or	r19, r21
     59a:	18 96       	adiw	r26, 0x08	; 8
     59c:	3c 93       	st	X, r19
     59e:	2e 93       	st	-X, r18
     5a0:	17 97       	sbiw	r26, 0x07	; 7
     5a2:	f6 01       	movw	r30, r12
     5a4:	80 81       	ld	r24, Z
     5a6:	87 0f       	add	r24, r23
     5a8:	80 83       	st	Z, r24
     5aa:	98 81       	ld	r25, Y
     5ac:	97 1b       	sub	r25, r23
     5ae:	98 83       	st	Y, r25
     5b0:	81 e0       	ldi	r24, 0x01	; 1
     5b2:	25 c0       	rjmp	.+74     	; 0x5fe <Factory+0xe4>
     5b4:	d8 01       	movw	r26, r16
     5b6:	6d 91       	ld	r22, X+
     5b8:	8d 01       	movw	r16, r26
     5ba:	f0 80       	ld	r15, Z
     5bc:	ac 01       	movw	r20, r24
     5be:	42 0f       	add	r20, r18
     5c0:	53 1f       	adc	r21, r19
     5c2:	4f 0d       	add	r20, r15
     5c4:	51 1d       	adc	r21, r1
     5c6:	da 01       	movw	r26, r20
     5c8:	1b 96       	adiw	r26, 0x0b	; 11
     5ca:	6c 93       	st	X, r22
     5cc:	1b 97       	sbiw	r26, 0x0b	; 11
     5ce:	2f 5f       	subi	r18, 0xFF	; 255
     5d0:	3f 4f       	sbci	r19, 0xFF	; 255
     5d2:	27 17       	cp	r18, r23
     5d4:	78 f3       	brcs	.-34     	; 0x5b4 <Factory+0x9a>
     5d6:	20 81       	ld	r18, Z
     5d8:	27 0f       	add	r18, r23
     5da:	20 83       	st	Z, r18
     5dc:	d6 01       	movw	r26, r12
     5de:	2c 91       	ld	r18, X
     5e0:	27 0f       	add	r18, r23
     5e2:	2c 93       	st	X, r18
     5e4:	28 81       	ld	r18, Y
     5e6:	27 1b       	sub	r18, r23
     5e8:	28 83       	st	Y, r18
     5ea:	22 23       	and	r18, r18
     5ec:	31 f4       	brne	.+12     	; 0x5fa <Factory+0xe0>
     5ee:	21 e0       	ldi	r18, 0x01	; 1
     5f0:	dc 01       	movw	r26, r24
     5f2:	14 96       	adiw	r26, 0x04	; 4
     5f4:	2c 93       	st	X, r18
     5f6:	10 82       	st	Z, r1
     5f8:	55 df       	rcall	.-342    	; 0x4a4 <Analyser>
     5fa:	81 e0       	ldi	r24, 0x01	; 1
     5fc:	98 81       	ld	r25, Y
     5fe:	99 23       	and	r25, r25
     600:	19 f0       	breq	.+6      	; 0x608 <Factory+0xee>
     602:	80 e0       	ldi	r24, 0x00	; 0
     604:	01 c0       	rjmp	.+2      	; 0x608 <Factory+0xee>
     606:	81 e0       	ldi	r24, 0x01	; 1
     608:	df 91       	pop	r29
     60a:	cf 91       	pop	r28
     60c:	1f 91       	pop	r17
     60e:	0f 91       	pop	r16
     610:	ff 90       	pop	r15
     612:	df 90       	pop	r13
     614:	cf 90       	pop	r12
     616:	08 95       	ret

00000618 <timers_init>:
     618:	84 e0       	ldi	r24, 0x04	; 4
     61a:	83 bf       	out	0x33, r24	; 51
     61c:	12 be       	out	0x32, r1	; 50
     61e:	85 e0       	ldi	r24, 0x05	; 5
     620:	8e bd       	out	0x2e, r24	; 46
     622:	1d bc       	out	0x2d, r1	; 45
     624:	1c bc       	out	0x2c, r1	; 44
     626:	08 95       	ret

00000628 <__vector_9>:
     628:	1f 92       	push	r1
     62a:	0f 92       	push	r0
     62c:	0f b6       	in	r0, 0x3f	; 63
     62e:	0f 92       	push	r0
     630:	11 24       	eor	r1, r1
     632:	2f 93       	push	r18
     634:	3f 93       	push	r19
     636:	8f 93       	push	r24
     638:	9f 93       	push	r25
     63a:	80 91 b1 00 	lds	r24, 0x00B1
     63e:	88 23       	and	r24, r24
     640:	b1 f0       	breq	.+44     	; 0x66e <__vector_9+0x46>
     642:	80 91 ad 00 	lds	r24, 0x00AD
     646:	90 91 ae 00 	lds	r25, 0x00AE
     64a:	9c 01       	movw	r18, r24
     64c:	2f 5f       	subi	r18, 0xFF	; 255
     64e:	3f 4f       	sbci	r19, 0xFF	; 255
     650:	30 93 ae 00 	sts	0x00AE, r19
     654:	20 93 ad 00 	sts	0x00AD, r18
     658:	82 33       	cpi	r24, 0x32	; 50
     65a:	91 05       	cpc	r25, r1
     65c:	41 f4       	brne	.+16     	; 0x66e <__vector_9+0x46>
     65e:	10 92 ae 00 	sts	0x00AE, r1
     662:	10 92 ad 00 	sts	0x00AD, r1
     666:	81 e0       	ldi	r24, 0x01	; 1
     668:	c0 99       	sbic	0x18, 0	; 24
     66a:	80 e0       	ldi	r24, 0x00	; 0
     66c:	88 bb       	out	0x18, r24	; 24
     66e:	9f 91       	pop	r25
     670:	8f 91       	pop	r24
     672:	3f 91       	pop	r19
     674:	2f 91       	pop	r18
     676:	0f 90       	pop	r0
     678:	0f be       	out	0x3f, r0	; 63
     67a:	0f 90       	pop	r0
     67c:	1f 90       	pop	r1
     67e:	18 95       	reti

00000680 <__vector_8>:
     680:	1f 92       	push	r1
     682:	0f 92       	push	r0
     684:	0f b6       	in	r0, 0x3f	; 63
     686:	0f 92       	push	r0
     688:	11 24       	eor	r1, r1
     68a:	2f 93       	push	r18
     68c:	3f 93       	push	r19
     68e:	8f 93       	push	r24
     690:	9f 93       	push	r25
     692:	80 91 b2 00 	lds	r24, 0x00B2
     696:	88 23       	and	r24, r24
     698:	e1 f0       	breq	.+56     	; 0x6d2 <__vector_8+0x52>
     69a:	81 e0       	ldi	r24, 0x01	; 1
     69c:	80 93 b1 00 	sts	0x00B1, r24
     6a0:	80 91 af 00 	lds	r24, 0x00AF
     6a4:	90 91 b0 00 	lds	r25, 0x00B0
     6a8:	9c 01       	movw	r18, r24
     6aa:	2f 5f       	subi	r18, 0xFF	; 255
     6ac:	3f 4f       	sbci	r19, 0xFF	; 255
     6ae:	30 93 b0 00 	sts	0x00B0, r19
     6b2:	20 93 af 00 	sts	0x00AF, r18
     6b6:	89 31       	cpi	r24, 0x19	; 25
     6b8:	91 05       	cpc	r25, r1
     6ba:	59 f4       	brne	.+22     	; 0x6d2 <__vector_8+0x52>
     6bc:	10 92 b0 00 	sts	0x00B0, r1
     6c0:	10 92 af 00 	sts	0x00AF, r1
     6c4:	10 92 b1 00 	sts	0x00B1, r1
     6c8:	10 92 b2 00 	sts	0x00B2, r1
     6cc:	18 ba       	out	0x18, r1	; 24
     6ce:	10 92 b3 00 	sts	0x00B3, r1
     6d2:	9f 91       	pop	r25
     6d4:	8f 91       	pop	r24
     6d6:	3f 91       	pop	r19
     6d8:	2f 91       	pop	r18
     6da:	0f 90       	pop	r0
     6dc:	0f be       	out	0x3f, r0	; 63
     6de:	0f 90       	pop	r0
     6e0:	1f 90       	pop	r1
     6e2:	18 95       	reti

000006e4 <makeNullArray>:
     6e4:	cf 92       	push	r12
     6e6:	df 92       	push	r13
     6e8:	ef 92       	push	r14
     6ea:	ff 92       	push	r15
     6ec:	0f 93       	push	r16
     6ee:	1f 93       	push	r17
     6f0:	df 93       	push	r29
     6f2:	cf 93       	push	r28
     6f4:	0f 92       	push	r0
     6f6:	cd b7       	in	r28, 0x3d	; 61
     6f8:	de b7       	in	r29, 0x3e	; 62
     6fa:	6b 01       	movw	r12, r22
     6fc:	e8 2e       	mov	r14, r24
     6fe:	f9 2e       	mov	r15, r25
     700:	00 e0       	ldi	r16, 0x00	; 0
     702:	10 e0       	ldi	r17, 0x00	; 0
     704:	09 c0       	rjmp	.+18     	; 0x718 <makeNullArray+0x34>
     706:	a8 95       	wdr
     708:	49 83       	std	Y+1, r20	; 0x01
     70a:	48 d4       	rcall	.+2192   	; 0xf9c <usbPoll>
     70c:	49 81       	ldd	r20, Y+1	; 0x01
     70e:	f7 01       	movw	r30, r14
     710:	41 93       	st	Z+, r20
     712:	7f 01       	movw	r14, r30
     714:	0f 5f       	subi	r16, 0xFF	; 255
     716:	1f 4f       	sbci	r17, 0xFF	; 255
     718:	0c 15       	cp	r16, r12
     71a:	1d 05       	cpc	r17, r13
     71c:	a0 f3       	brcs	.-24     	; 0x706 <makeNullArray+0x22>
     71e:	0f 90       	pop	r0
     720:	cf 91       	pop	r28
     722:	df 91       	pop	r29
     724:	1f 91       	pop	r17
     726:	0f 91       	pop	r16
     728:	ff 90       	pop	r15
     72a:	ef 90       	pop	r14
     72c:	df 90       	pop	r13
     72e:	cf 90       	pop	r12
     730:	08 95       	ret

00000732 <framesAmount>:
     732:	fc 01       	movw	r30, r24
     734:	9b 01       	movw	r18, r22
     736:	86 17       	cp	r24, r22
     738:	97 07       	cpc	r25, r23
     73a:	78 f0       	brcs	.+30     	; 0x75a <framesAmount+0x28>
     73c:	74 d7       	rcall	.+3816   	; 0x1626 <__udivmodhi4>
     73e:	62 9f       	mul	r22, r18
     740:	c0 01       	movw	r24, r0
     742:	63 9f       	mul	r22, r19
     744:	90 0d       	add	r25, r0
     746:	72 9f       	mul	r23, r18
     748:	90 0d       	add	r25, r0
     74a:	11 24       	eor	r1, r1
     74c:	8e 17       	cp	r24, r30
     74e:	9f 07       	cpc	r25, r31
     750:	28 f4       	brcc	.+10     	; 0x75c <framesAmount+0x2a>
     752:	fc 01       	movw	r30, r24
     754:	e2 0f       	add	r30, r18
     756:	f3 1f       	adc	r31, r19
     758:	01 c0       	rjmp	.+2      	; 0x75c <framesAmount+0x2a>
     75a:	fb 01       	movw	r30, r22
     75c:	cf 01       	movw	r24, r30
     75e:	b9 01       	movw	r22, r18
     760:	62 d7       	rcall	.+3780   	; 0x1626 <__udivmodhi4>
     762:	cb 01       	movw	r24, r22
     764:	08 95       	ret

00000766 <Crc16_clc>:
     766:	ef 92       	push	r14
     768:	ff 92       	push	r15
     76a:	0f 93       	push	r16
     76c:	1f 93       	push	r17
     76e:	cf 93       	push	r28
     770:	df 93       	push	r29
     772:	8c 01       	movw	r16, r24
     774:	7b 01       	movw	r14, r22
     776:	c0 e0       	ldi	r28, 0x00	; 0
     778:	d0 e0       	ldi	r29, 0x00	; 0
     77a:	32 c0       	rjmp	.+100    	; 0x7e0 <Crc16_clc+0x7a>
     77c:	a8 95       	wdr
     77e:	0e d4       	rcall	.+2076   	; 0xf9c <usbPoll>
     780:	2d 2f       	mov	r18, r29
     782:	33 27       	eor	r19, r19
     784:	f8 01       	movw	r30, r16
     786:	81 91       	ld	r24, Z+
     788:	8f 01       	movw	r16, r30
     78a:	90 e0       	ldi	r25, 0x00	; 0
     78c:	28 27       	eor	r18, r24
     78e:	39 27       	eor	r19, r25
     790:	c9 01       	movw	r24, r18
     792:	e4 e0       	ldi	r30, 0x04	; 4
     794:	96 95       	lsr	r25
     796:	87 95       	ror	r24
     798:	ea 95       	dec	r30
     79a:	e1 f7       	brne	.-8      	; 0x794 <Crc16_clc+0x2e>
     79c:	82 27       	eor	r24, r18
     79e:	93 27       	eor	r25, r19
     7a0:	9c 01       	movw	r18, r24
     7a2:	36 95       	lsr	r19
     7a4:	27 95       	ror	r18
     7a6:	36 95       	lsr	r19
     7a8:	27 95       	ror	r18
     7aa:	28 27       	eor	r18, r24
     7ac:	39 27       	eor	r19, r25
     7ae:	c9 01       	movw	r24, r18
     7b0:	96 95       	lsr	r25
     7b2:	87 95       	ror	r24
     7b4:	82 27       	eor	r24, r18
     7b6:	93 27       	eor	r25, r19
     7b8:	dc 2f       	mov	r29, r28
     7ba:	cc 27       	eor	r28, r28
     7bc:	c8 27       	eor	r28, r24
     7be:	d9 27       	eor	r29, r25
     7c0:	9c 01       	movw	r18, r24
     7c2:	33 27       	eor	r19, r19
     7c4:	26 95       	lsr	r18
     7c6:	37 95       	ror	r19
     7c8:	22 27       	eor	r18, r18
     7ca:	c2 27       	eor	r28, r18
     7cc:	d3 27       	eor	r29, r19
     7ce:	88 0f       	add	r24, r24
     7d0:	99 1f       	adc	r25, r25
     7d2:	88 0f       	add	r24, r24
     7d4:	99 1f       	adc	r25, r25
     7d6:	c8 27       	eor	r28, r24
     7d8:	d9 27       	eor	r29, r25
     7da:	08 94       	sec
     7dc:	e1 08       	sbc	r14, r1
     7de:	f1 08       	sbc	r15, r1
     7e0:	e1 14       	cp	r14, r1
     7e2:	f1 04       	cpc	r15, r1
     7e4:	59 f6       	brne	.-106    	; 0x77c <Crc16_clc+0x16>
     7e6:	ce 01       	movw	r24, r28
     7e8:	df 91       	pop	r29
     7ea:	cf 91       	pop	r28
     7ec:	1f 91       	pop	r17
     7ee:	0f 91       	pop	r16
     7f0:	ff 90       	pop	r15
     7f2:	ef 90       	pop	r14
     7f4:	08 95       	ret

000007f6 <_doMath>:
     7f6:	ef 92       	push	r14
     7f8:	ff 92       	push	r15
     7fa:	0f 93       	push	r16
     7fc:	1f 93       	push	r17
     7fe:	cf 93       	push	r28
     800:	df 93       	push	r29
     802:	8a 01       	movw	r16, r20
     804:	c6 2f       	mov	r28, r22
     806:	d0 e0       	ldi	r29, 0x00	; 0
     808:	38 2f       	mov	r19, r24
     80a:	20 e0       	ldi	r18, 0x00	; 0
     80c:	c2 2b       	or	r28, r18
     80e:	d3 2b       	or	r29, r19
     810:	c4 17       	cp	r28, r20
     812:	d5 07       	cpc	r29, r21
     814:	98 f0       	brcs	.+38     	; 0x83c <_doMath+0x46>
     816:	a8 95       	wdr
     818:	c1 d3       	rcall	.+1922   	; 0xf9c <usbPoll>
     81a:	ce 01       	movw	r24, r28
     81c:	b8 01       	movw	r22, r16
     81e:	03 d7       	rcall	.+3590   	; 0x1626 <__udivmodhi4>
     820:	60 9f       	mul	r22, r16
     822:	c0 01       	movw	r24, r0
     824:	61 9f       	mul	r22, r17
     826:	90 0d       	add	r25, r0
     828:	70 9f       	mul	r23, r16
     82a:	90 0d       	add	r25, r0
     82c:	11 24       	eor	r1, r1
     82e:	8c 17       	cp	r24, r28
     830:	9d 07       	cpc	r25, r29
     832:	28 f4       	brcc	.+10     	; 0x83e <_doMath+0x48>
     834:	ec 01       	movw	r28, r24
     836:	c0 0f       	add	r28, r16
     838:	d1 1f       	adc	r29, r17
     83a:	01 c0       	rjmp	.+2      	; 0x83e <_doMath+0x48>
     83c:	ea 01       	movw	r28, r20
     83e:	ce 01       	movw	r24, r28
     840:	df 91       	pop	r29
     842:	cf 91       	pop	r28
     844:	1f 91       	pop	r17
     846:	0f 91       	pop	r16
     848:	ff 90       	pop	r15
     84a:	ef 90       	pop	r14
     84c:	08 95       	ret

0000084e <sendProtocolFrameToHost>:
     84e:	9f 92       	push	r9
     850:	af 92       	push	r10
     852:	bf 92       	push	r11
     854:	cf 92       	push	r12
     856:	df 92       	push	r13
     858:	ef 92       	push	r14
     85a:	ff 92       	push	r15
     85c:	0f 93       	push	r16
     85e:	1f 93       	push	r17
     860:	df 93       	push	r29
     862:	cf 93       	push	r28
     864:	cd b7       	in	r28, 0x3d	; 61
     866:	de b7       	in	r29, 0x3e	; 62
     868:	c8 54       	subi	r28, 0x48	; 72
     86a:	d0 40       	sbci	r29, 0x00	; 0
     86c:	0f b6       	in	r0, 0x3f	; 63
     86e:	f8 94       	cli
     870:	de bf       	out	0x3e, r29	; 62
     872:	0f be       	out	0x3f, r0	; 63
     874:	cd bf       	out	0x3d, r28	; 61
     876:	f7 01       	movw	r30, r14
     878:	89 83       	std	Y+1, r24	; 0x01
     87a:	6a 83       	std	Y+2, r22	; 0x02
     87c:	4b 83       	std	Y+3, r20	; 0x03
     87e:	5c 83       	std	Y+4, r21	; 0x04
     880:	2d 83       	std	Y+5, r18	; 0x05
     882:	3e 83       	std	Y+6, r19	; 0x06
     884:	0f 83       	std	Y+7, r16	; 0x07
     886:	18 87       	std	Y+8, r17	; 0x08
     888:	ce 01       	movw	r24, r28
     88a:	09 96       	adiw	r24, 0x09	; 9
     88c:	6e 01       	movw	r12, r28
     88e:	08 94       	sec
     890:	c1 1c       	adc	r12, r1
     892:	d1 1c       	adc	r13, r1
     894:	38 97       	sbiw	r30, 0x08	; 8
     896:	a6 01       	movw	r20, r12
     898:	20 e0       	ldi	r18, 0x00	; 0
     89a:	28 30       	cpi	r18, 0x08	; 8
     89c:	18 f4       	brcc	.+6      	; 0x8a4 <sendProtocolFrameToHost+0x56>
     89e:	da 01       	movw	r26, r20
     8a0:	3c 91       	ld	r19, X
     8a2:	01 c0       	rjmp	.+2      	; 0x8a6 <sendProtocolFrameToHost+0x58>
     8a4:	30 81       	ld	r19, Z
     8a6:	dc 01       	movw	r26, r24
     8a8:	3d 93       	st	X+, r19
     8aa:	cd 01       	movw	r24, r26
     8ac:	2f 5f       	subi	r18, 0xFF	; 255
     8ae:	4f 5f       	subi	r20, 0xFF	; 255
     8b0:	5f 4f       	sbci	r21, 0xFF	; 255
     8b2:	31 96       	adiw	r30, 0x01	; 1
     8b4:	20 34       	cpi	r18, 0x40	; 64
     8b6:	89 f7       	brne	.-30     	; 0x89a <sendProtocolFrameToHost+0x4c>
     8b8:	5e 01       	movw	r10, r28
     8ba:	08 94       	sec
     8bc:	a1 1c       	adc	r10, r1
     8be:	b1 1c       	adc	r11, r1
     8c0:	c5 01       	movw	r24, r10
     8c2:	68 e0       	ldi	r22, 0x08	; 8
     8c4:	70 e0       	ldi	r23, 0x00	; 0
     8c6:	40 e0       	ldi	r20, 0x00	; 0
     8c8:	0d df       	rcall	.-486    	; 0x6e4 <makeNullArray>
     8ca:	00 e0       	ldi	r16, 0x00	; 0
     8cc:	10 e0       	ldi	r17, 0x00	; 0
     8ce:	b9 e0       	ldi	r27, 0x09	; 9
     8d0:	eb 2e       	mov	r14, r27
     8d2:	f1 2c       	mov	r15, r1
     8d4:	ec 0e       	add	r14, r28
     8d6:	fd 1e       	adc	r15, r29
     8d8:	9a 2c       	mov	r9, r10
     8da:	ab 2c       	mov	r10, r11
     8dc:	15 c0       	rjmp	.+42     	; 0x908 <sendProtocolFrameToHost+0xba>
     8de:	81 91       	ld	r24, Z+
     8e0:	8d 93       	st	X+, r24
     8e2:	ae 15       	cp	r26, r14
     8e4:	bf 05       	cpc	r27, r15
     8e6:	d9 f7       	brne	.-10     	; 0x8de <sendProtocolFrameToHost+0x90>
     8e8:	02 c0       	rjmp	.+4      	; 0x8ee <sendProtocolFrameToHost+0xa0>
     8ea:	a8 95       	wdr
     8ec:	57 d3       	rcall	.+1710   	; 0xf9c <usbPoll>
     8ee:	80 91 02 01 	lds	r24, 0x0102
     8f2:	84 ff       	sbrs	r24, 4
     8f4:	fa cf       	rjmp	.-12     	; 0x8ea <sendProtocolFrameToHost+0x9c>
     8f6:	89 2d       	mov	r24, r9
     8f8:	9a 2d       	mov	r25, r10
     8fa:	68 e0       	ldi	r22, 0x08	; 8
     8fc:	29 d3       	rcall	.+1618   	; 0xf50 <usbSetInterrupt>
     8fe:	0f 5f       	subi	r16, 0xFF	; 255
     900:	1f 4f       	sbci	r17, 0xFF	; 255
     902:	08 30       	cpi	r16, 0x08	; 8
     904:	11 05       	cpc	r17, r1
     906:	51 f0       	breq	.+20     	; 0x91c <sendProtocolFrameToHost+0xce>
     908:	f8 01       	movw	r30, r16
     90a:	a3 e0       	ldi	r26, 0x03	; 3
     90c:	ee 0f       	add	r30, r30
     90e:	ff 1f       	adc	r31, r31
     910:	aa 95       	dec	r26
     912:	e1 f7       	brne	.-8      	; 0x90c <sendProtocolFrameToHost+0xbe>
     914:	ee 0d       	add	r30, r14
     916:	ff 1d       	adc	r31, r15
     918:	d6 01       	movw	r26, r12
     91a:	e1 cf       	rjmp	.-62     	; 0x8de <sendProtocolFrameToHost+0x90>
     91c:	c8 5b       	subi	r28, 0xB8	; 184
     91e:	df 4f       	sbci	r29, 0xFF	; 255
     920:	0f b6       	in	r0, 0x3f	; 63
     922:	f8 94       	cli
     924:	de bf       	out	0x3e, r29	; 62
     926:	0f be       	out	0x3f, r0	; 63
     928:	cd bf       	out	0x3d, r28	; 61
     92a:	cf 91       	pop	r28
     92c:	df 91       	pop	r29
     92e:	1f 91       	pop	r17
     930:	0f 91       	pop	r16
     932:	ff 90       	pop	r15
     934:	ef 90       	pop	r14
     936:	df 90       	pop	r13
     938:	cf 90       	pop	r12
     93a:	bf 90       	pop	r11
     93c:	af 90       	pop	r10
     93e:	9f 90       	pop	r9
     940:	08 95       	ret

00000942 <uAcknowledgeToHost>:
     942:	ef 92       	push	r14
     944:	ff 92       	push	r15
     946:	0f 93       	push	r16
     948:	1f 93       	push	r17
     94a:	df 93       	push	r29
     94c:	cf 93       	push	r28
     94e:	cd b7       	in	r28, 0x3d	; 61
     950:	de b7       	in	r29, 0x3e	; 62
     952:	e8 97       	sbiw	r28, 0x38	; 56
     954:	0f b6       	in	r0, 0x3f	; 63
     956:	f8 94       	cli
     958:	de bf       	out	0x3e, r29	; 62
     95a:	0f be       	out	0x3f, r0	; 63
     95c:	cd bf       	out	0x3d, r28	; 61
     95e:	08 2f       	mov	r16, r24
     960:	16 2f       	mov	r17, r22
     962:	7e 01       	movw	r14, r28
     964:	08 94       	sec
     966:	e1 1c       	adc	r14, r1
     968:	f1 1c       	adc	r15, r1
     96a:	c7 01       	movw	r24, r14
     96c:	68 e3       	ldi	r22, 0x38	; 56
     96e:	70 e0       	ldi	r23, 0x00	; 0
     970:	40 e0       	ldi	r20, 0x00	; 0
     972:	b8 de       	rcall	.-656    	; 0x6e4 <makeNullArray>
     974:	80 2f       	mov	r24, r16
     976:	61 2f       	mov	r22, r17
     978:	40 e0       	ldi	r20, 0x00	; 0
     97a:	50 e0       	ldi	r21, 0x00	; 0
     97c:	21 e0       	ldi	r18, 0x01	; 1
     97e:	30 e0       	ldi	r19, 0x00	; 0
     980:	01 e0       	ldi	r16, 0x01	; 1
     982:	10 e0       	ldi	r17, 0x00	; 0
     984:	64 df       	rcall	.-312    	; 0x84e <sendProtocolFrameToHost>
     986:	e8 96       	adiw	r28, 0x38	; 56
     988:	0f b6       	in	r0, 0x3f	; 63
     98a:	f8 94       	cli
     98c:	de bf       	out	0x3e, r29	; 62
     98e:	0f be       	out	0x3f, r0	; 63
     990:	cd bf       	out	0x3d, r28	; 61
     992:	cf 91       	pop	r28
     994:	df 91       	pop	r29
     996:	1f 91       	pop	r17
     998:	0f 91       	pop	r16
     99a:	ff 90       	pop	r15
     99c:	ef 90       	pop	r14
     99e:	08 95       	ret

000009a0 <eraseMD5keys>:
     9a0:	0f 93       	push	r16
     9a2:	1f 93       	push	r17
     9a4:	cf 93       	push	r28
     9a6:	df 93       	push	r29
     9a8:	8c 01       	movw	r16, r24
     9aa:	c0 e0       	ldi	r28, 0x00	; 0
     9ac:	d0 e0       	ldi	r29, 0x00	; 0
     9ae:	ce 01       	movw	r24, r28
     9b0:	60 e0       	ldi	r22, 0x00	; 0
     9b2:	81 d6       	rcall	.+3330   	; 0x16b6 <__eewr_byte_m8>
     9b4:	21 96       	adiw	r28, 0x01	; 1
     9b6:	c1 32       	cpi	r28, 0x21	; 33
     9b8:	d1 05       	cpc	r29, r1
     9ba:	c9 f7       	brne	.-14     	; 0x9ae <eraseMD5keys+0xe>
     9bc:	f8 01       	movw	r30, r16
     9be:	83 81       	ldd	r24, Z+3	; 0x03
     9c0:	67 e3       	ldi	r22, 0x37	; 55
     9c2:	bf df       	rcall	.-130    	; 0x942 <uAcknowledgeToHost>
     9c4:	81 e0       	ldi	r24, 0x01	; 1
     9c6:	f8 01       	movw	r30, r16
     9c8:	80 83       	st	Z, r24
     9ca:	df 91       	pop	r29
     9cc:	cf 91       	pop	r28
     9ce:	1f 91       	pop	r17
     9d0:	0f 91       	pop	r16
     9d2:	08 95       	ret

000009d4 <idenProc>:
     9d4:	8f 92       	push	r8
     9d6:	9f 92       	push	r9
     9d8:	af 92       	push	r10
     9da:	bf 92       	push	r11
     9dc:	cf 92       	push	r12
     9de:	df 92       	push	r13
     9e0:	ef 92       	push	r14
     9e2:	ff 92       	push	r15
     9e4:	0f 93       	push	r16
     9e6:	1f 93       	push	r17
     9e8:	df 93       	push	r29
     9ea:	cf 93       	push	r28
     9ec:	cd b7       	in	r28, 0x3d	; 61
     9ee:	de b7       	in	r29, 0x3e	; 62
     9f0:	61 97       	sbiw	r28, 0x11	; 17
     9f2:	0f b6       	in	r0, 0x3f	; 63
     9f4:	f8 94       	cli
     9f6:	de bf       	out	0x3e, r29	; 62
     9f8:	0f be       	out	0x3f, r0	; 63
     9fa:	cd bf       	out	0x3d, r28	; 61
     9fc:	8c 01       	movw	r16, r24
     9fe:	80 e0       	ldi	r24, 0x00	; 0
     a00:	90 e0       	ldi	r25, 0x00	; 0
     a02:	48 d6       	rcall	.+3216   	; 0x1694 <__eerd_byte_m8>
     a04:	c8 2e       	mov	r12, r24
     a06:	88 23       	and	r24, r24
     a08:	89 f0       	breq	.+34     	; 0xa2c <idenProc+0x58>
     a0a:	21 e0       	ldi	r18, 0x01	; 1
     a0c:	dd 24       	eor	r13, r13
     a0e:	7e 01       	movw	r14, r28
     a10:	08 94       	sec
     a12:	e1 1c       	adc	r14, r1
     a14:	f1 1c       	adc	r15, r1
     a16:	9b e0       	ldi	r25, 0x0B	; 11
     a18:	a9 2e       	mov	r10, r25
     a1a:	b1 2c       	mov	r11, r1
     a1c:	a0 0e       	add	r10, r16
     a1e:	b1 1e       	adc	r11, r17
     a20:	81 e1       	ldi	r24, 0x11	; 17
     a22:	88 2e       	mov	r8, r24
     a24:	91 2c       	mov	r9, r1
     a26:	8c 0e       	add	r8, r28
     a28:	9d 1e       	adc	r9, r29
     a2a:	25 c0       	rjmp	.+74     	; 0xa76 <idenProc+0xa2>
     a2c:	f8 01       	movw	r30, r16
     a2e:	83 81       	ldd	r24, Z+3	; 0x03
     a30:	6e e1       	ldi	r22, 0x1E	; 30
     a32:	26 c0       	rjmp	.+76     	; 0xa80 <idenProc+0xac>
     a34:	c7 01       	movw	r24, r14
     a36:	62 2f       	mov	r22, r18
     a38:	70 e0       	ldi	r23, 0x00	; 0
     a3a:	40 e1       	ldi	r20, 0x10	; 16
     a3c:	50 e0       	ldi	r21, 0x00	; 0
     a3e:	29 8b       	std	Y+17, r18	; 0x11
     a40:	19 d6       	rcall	.+3122   	; 0x1674 <__eerd_block_m8>
     a42:	d5 01       	movw	r26, r10
     a44:	f7 01       	movw	r30, r14
     a46:	80 e0       	ldi	r24, 0x00	; 0
     a48:	29 89       	ldd	r18, Y+17	; 0x11
     a4a:	3d 91       	ld	r19, X+
     a4c:	91 91       	ld	r25, Z+
     a4e:	39 17       	cp	r19, r25
     a50:	09 f4       	brne	.+2      	; 0xa54 <idenProc+0x80>
     a52:	8f 5f       	subi	r24, 0xFF	; 255
     a54:	e8 15       	cp	r30, r8
     a56:	f9 05       	cpc	r31, r9
     a58:	c1 f7       	brne	.-16     	; 0xa4a <idenProc+0x76>
     a5a:	20 5f       	subi	r18, 0xF0	; 240
     a5c:	80 31       	cpi	r24, 0x10	; 16
     a5e:	51 f4       	brne	.+20     	; 0xa74 <idenProc+0xa0>
     a60:	f8 01       	movw	r30, r16
     a62:	83 81       	ldd	r24, Z+3	; 0x03
     a64:	62 e1       	ldi	r22, 0x12	; 18
     a66:	6d df       	rcall	.-294    	; 0x942 <uAcknowledgeToHost>
     a68:	81 e0       	ldi	r24, 0x01	; 1
     a6a:	f8 01       	movw	r30, r16
     a6c:	80 83       	st	Z, r24
     a6e:	80 93 b2 00 	sts	0x00B2, r24
     a72:	07 c0       	rjmp	.+14     	; 0xa82 <idenProc+0xae>
     a74:	d3 94       	inc	r13
     a76:	dc 14       	cp	r13, r12
     a78:	e8 f2       	brcs	.-70     	; 0xa34 <idenProc+0x60>
     a7a:	f8 01       	movw	r30, r16
     a7c:	83 81       	ldd	r24, Z+3	; 0x03
     a7e:	6c e0       	ldi	r22, 0x0C	; 12
     a80:	60 df       	rcall	.-320    	; 0x942 <uAcknowledgeToHost>
     a82:	61 96       	adiw	r28, 0x11	; 17
     a84:	0f b6       	in	r0, 0x3f	; 63
     a86:	f8 94       	cli
     a88:	de bf       	out	0x3e, r29	; 62
     a8a:	0f be       	out	0x3f, r0	; 63
     a8c:	cd bf       	out	0x3d, r28	; 61
     a8e:	cf 91       	pop	r28
     a90:	df 91       	pop	r29
     a92:	1f 91       	pop	r17
     a94:	0f 91       	pop	r16
     a96:	ff 90       	pop	r15
     a98:	ef 90       	pop	r14
     a9a:	df 90       	pop	r13
     a9c:	cf 90       	pop	r12
     a9e:	bf 90       	pop	r11
     aa0:	af 90       	pop	r10
     aa2:	9f 90       	pop	r9
     aa4:	8f 90       	pop	r8
     aa6:	08 95       	ret

00000aa8 <writeMD5>:
     aa8:	ff 92       	push	r15
     aaa:	0f 93       	push	r16
     aac:	1f 93       	push	r17
     aae:	df 93       	push	r29
     ab0:	cf 93       	push	r28
     ab2:	cd b7       	in	r28, 0x3d	; 61
     ab4:	de b7       	in	r29, 0x3e	; 62
     ab6:	60 97       	sbiw	r28, 0x10	; 16
     ab8:	0f b6       	in	r0, 0x3f	; 63
     aba:	f8 94       	cli
     abc:	de bf       	out	0x3e, r29	; 62
     abe:	0f be       	out	0x3f, r0	; 63
     ac0:	cd bf       	out	0x3d, r28	; 61
     ac2:	8c 01       	movw	r16, r24
     ac4:	80 e0       	ldi	r24, 0x00	; 0
     ac6:	90 e0       	ldi	r25, 0x00	; 0
     ac8:	e5 d5       	rcall	.+3018   	; 0x1694 <__eerd_byte_m8>
     aca:	82 30       	cpi	r24, 0x02	; 2
     acc:	20 f0       	brcs	.+8      	; 0xad6 <writeMD5+0x2e>
     ace:	f8 01       	movw	r30, r16
     ad0:	83 81       	ldd	r24, Z+3	; 0x03
     ad2:	6b e1       	ldi	r22, 0x1B	; 27
     ad4:	1f c0       	rjmp	.+62     	; 0xb14 <writeMD5+0x6c>
     ad6:	f8 2e       	mov	r15, r24
     ad8:	f3 94       	inc	r15
     ada:	80 e0       	ldi	r24, 0x00	; 0
     adc:	90 e0       	ldi	r25, 0x00	; 0
     ade:	6f 2d       	mov	r22, r15
     ae0:	ea d5       	rcall	.+3028   	; 0x16b6 <__eewr_byte_m8>
     ae2:	d8 01       	movw	r26, r16
     ae4:	1b 96       	adiw	r26, 0x0b	; 11
     ae6:	fe 01       	movw	r30, r28
     ae8:	31 96       	adiw	r30, 0x01	; 1
     aea:	9e 01       	movw	r18, r28
     aec:	2f 5e       	subi	r18, 0xEF	; 239
     aee:	3f 4f       	sbci	r19, 0xFF	; 255
     af0:	8d 91       	ld	r24, X+
     af2:	81 93       	st	Z+, r24
     af4:	e2 17       	cp	r30, r18
     af6:	f3 07       	cpc	r31, r19
     af8:	d9 f7       	brne	.-10     	; 0xaf0 <writeMD5+0x48>
     afa:	6f 2d       	mov	r22, r15
     afc:	62 95       	swap	r22
     afe:	60 7f       	andi	r22, 0xF0	; 240
     b00:	6f 50       	subi	r22, 0x0F	; 15
     b02:	ce 01       	movw	r24, r28
     b04:	01 96       	adiw	r24, 0x01	; 1
     b06:	70 e0       	ldi	r23, 0x00	; 0
     b08:	40 e1       	ldi	r20, 0x10	; 16
     b0a:	50 e0       	ldi	r21, 0x00	; 0
     b0c:	cb d5       	rcall	.+2966   	; 0x16a4 <__eewr_block_m8>
     b0e:	f8 01       	movw	r30, r16
     b10:	83 81       	ldd	r24, Z+3	; 0x03
     b12:	67 e3       	ldi	r22, 0x37	; 55
     b14:	16 df       	rcall	.-468    	; 0x942 <uAcknowledgeToHost>
     b16:	60 96       	adiw	r28, 0x10	; 16
     b18:	0f b6       	in	r0, 0x3f	; 63
     b1a:	f8 94       	cli
     b1c:	de bf       	out	0x3e, r29	; 62
     b1e:	0f be       	out	0x3f, r0	; 63
     b20:	cd bf       	out	0x3d, r28	; 61
     b22:	cf 91       	pop	r28
     b24:	df 91       	pop	r29
     b26:	1f 91       	pop	r17
     b28:	0f 91       	pop	r16
     b2a:	ff 90       	pop	r15
     b2c:	08 95       	ret

00000b2e <eraseExternalEeprom>:
     b2e:	0f 93       	push	r16
     b30:	1f 93       	push	r17
     b32:	df 93       	push	r29
     b34:	cf 93       	push	r28
     b36:	cd b7       	in	r28, 0x3d	; 61
     b38:	de b7       	in	r29, 0x3e	; 62
     b3a:	c0 54       	subi	r28, 0x40	; 64
     b3c:	d0 40       	sbci	r29, 0x00	; 0
     b3e:	0f b6       	in	r0, 0x3f	; 63
     b40:	f8 94       	cli
     b42:	de bf       	out	0x3e, r29	; 62
     b44:	0f be       	out	0x3f, r0	; 63
     b46:	cd bf       	out	0x3d, r28	; 61
     b48:	8c 01       	movw	r16, r24
     b4a:	10 92 b2 00 	sts	0x00B2, r1
     b4e:	ce 01       	movw	r24, r28
     b50:	01 96       	adiw	r24, 0x01	; 1
     b52:	60 e4       	ldi	r22, 0x40	; 64
     b54:	70 e0       	ldi	r23, 0x00	; 0
     b56:	4f ef       	ldi	r20, 0xFF	; 255
     b58:	c5 dd       	rcall	.-1142   	; 0x6e4 <makeNullArray>
     b5a:	f8 01       	movw	r30, r16
     b5c:	87 81       	ldd	r24, Z+7	; 0x07
     b5e:	90 85       	ldd	r25, Z+8	; 0x08
     b60:	81 30       	cpi	r24, 0x01	; 1
     b62:	91 05       	cpc	r25, r1
     b64:	11 f4       	brne	.+4      	; 0xb6a <eraseExternalEeprom+0x3c>
     b66:	20 e0       	ldi	r18, 0x00	; 0
     b68:	01 c0       	rjmp	.+2      	; 0xb6c <eraseExternalEeprom+0x3e>
     b6a:	2f ef       	ldi	r18, 0xFF	; 255
     b6c:	2a 83       	std	Y+2, r18	; 0x02
     b6e:	29 83       	std	Y+1, r18	; 0x01
     b70:	81 50       	subi	r24, 0x01	; 1
     b72:	9c 4f       	sbci	r25, 0xFC	; 252
     b74:	26 e0       	ldi	r18, 0x06	; 6
     b76:	88 0f       	add	r24, r24
     b78:	99 1f       	adc	r25, r25
     b7a:	2a 95       	dec	r18
     b7c:	e1 f7       	brne	.-8      	; 0xb76 <eraseExternalEeprom+0x48>
     b7e:	60 e4       	ldi	r22, 0x40	; 64
     b80:	70 e0       	ldi	r23, 0x00	; 0
     b82:	ae 01       	movw	r20, r28
     b84:	4f 5f       	subi	r20, 0xFF	; 255
     b86:	5f 4f       	sbci	r21, 0xFF	; 255
     b88:	aa da       	rcall	.-2732   	; 0xde <ee24cxxx_write_page>
     b8a:	c8 01       	movw	r24, r16
     b8c:	09 df       	rcall	.-494    	; 0x9a0 <eraseMD5keys>
     b8e:	f8 01       	movw	r30, r16
     b90:	83 81       	ldd	r24, Z+3	; 0x03
     b92:	67 e3       	ldi	r22, 0x37	; 55
     b94:	d6 de       	rcall	.-596    	; 0x942 <uAcknowledgeToHost>
     b96:	c0 5c       	subi	r28, 0xC0	; 192
     b98:	df 4f       	sbci	r29, 0xFF	; 255
     b9a:	0f b6       	in	r0, 0x3f	; 63
     b9c:	f8 94       	cli
     b9e:	de bf       	out	0x3e, r29	; 62
     ba0:	0f be       	out	0x3f, r0	; 63
     ba2:	cd bf       	out	0x3d, r28	; 61
     ba4:	cf 91       	pop	r28
     ba6:	df 91       	pop	r29
     ba8:	1f 91       	pop	r17
     baa:	0f 91       	pop	r16
     bac:	08 95       	ret

00000bae <sequentialWriteToEeprom>:
     bae:	0f 93       	push	r16
     bb0:	1f 93       	push	r17
     bb2:	cf 93       	push	r28
     bb4:	df 93       	push	r29
     bb6:	ec 01       	movw	r28, r24
     bb8:	2f 81       	ldd	r18, Y+7	; 0x07
     bba:	38 85       	ldd	r19, Y+8	; 0x08
     bbc:	88 e3       	ldi	r24, 0x38	; 56
     bbe:	90 e0       	ldi	r25, 0x00	; 0
     bc0:	28 9f       	mul	r18, r24
     bc2:	80 01       	movw	r16, r0
     bc4:	29 9f       	mul	r18, r25
     bc6:	10 0d       	add	r17, r0
     bc8:	38 9f       	mul	r19, r24
     bca:	10 0d       	add	r17, r0
     bcc:	11 24       	eor	r1, r1
     bce:	80 e8       	ldi	r24, 0x80	; 128
     bd0:	01 30       	cpi	r16, 0x01	; 1
     bd2:	18 07       	cpc	r17, r24
     bd4:	18 f0       	brcs	.+6      	; 0xbdc <sequentialWriteToEeprom+0x2e>
     bd6:	8b 81       	ldd	r24, Y+3	; 0x03
     bd8:	64 e1       	ldi	r22, 0x14	; 20
     bda:	0c c0       	rjmp	.+24     	; 0xbf4 <sequentialWriteToEeprom+0x46>
     bdc:	a8 95       	wdr
     bde:	de d1       	rcall	.+956    	; 0xf9c <usbPoll>
     be0:	ae 01       	movw	r20, r28
     be2:	45 5f       	subi	r20, 0xF5	; 245
     be4:	5f 4f       	sbci	r21, 0xFF	; 255
     be6:	c8 01       	movw	r24, r16
     be8:	c8 97       	sbiw	r24, 0x38	; 56
     bea:	68 e3       	ldi	r22, 0x38	; 56
     bec:	70 e0       	ldi	r23, 0x00	; 0
     bee:	ed da       	rcall	.-2598   	; 0x1ca <ee24cxxx_write_bytes>
     bf0:	8b 81       	ldd	r24, Y+3	; 0x03
     bf2:	67 e3       	ldi	r22, 0x37	; 55
     bf4:	a6 de       	rcall	.-692    	; 0x942 <uAcknowledgeToHost>
     bf6:	df 91       	pop	r29
     bf8:	cf 91       	pop	r28
     bfa:	1f 91       	pop	r17
     bfc:	0f 91       	pop	r16
     bfe:	08 95       	ret

00000c00 <partialOutPutToHost>:
     c00:	cf 92       	push	r12
     c02:	df 92       	push	r13
     c04:	ef 92       	push	r14
     c06:	ff 92       	push	r15
     c08:	0f 93       	push	r16
     c0a:	1f 93       	push	r17
     c0c:	df 93       	push	r29
     c0e:	cf 93       	push	r28
     c10:	cd b7       	in	r28, 0x3d	; 61
     c12:	de b7       	in	r29, 0x3e	; 62
     c14:	ea 97       	sbiw	r28, 0x3a	; 58
     c16:	0f b6       	in	r0, 0x3f	; 63
     c18:	f8 94       	cli
     c1a:	de bf       	out	0x3e, r29	; 62
     c1c:	0f be       	out	0x3f, r0	; 63
     c1e:	cd bf       	out	0x3d, r28	; 61
     c20:	8c 01       	movw	r16, r24
     c22:	80 e0       	ldi	r24, 0x00	; 0
     c24:	90 e0       	ldi	r25, 0x00	; 0
     c26:	62 e0       	ldi	r22, 0x02	; 2
     c28:	70 e0       	ldi	r23, 0x00	; 0
     c2a:	ae 01       	movw	r20, r28
     c2c:	4f 5f       	subi	r20, 0xFF	; 255
     c2e:	5f 4f       	sbci	r21, 0xFF	; 255
     c30:	f9 da       	rcall	.-2574   	; 0x224 <ee24cxxx_read_bytes>
     c32:	3a 81       	ldd	r19, Y+2	; 0x02
     c34:	20 e0       	ldi	r18, 0x00	; 0
     c36:	89 81       	ldd	r24, Y+1	; 0x01
     c38:	90 e0       	ldi	r25, 0x00	; 0
     c3a:	82 2b       	or	r24, r18
     c3c:	93 2b       	or	r25, r19
     c3e:	20 e8       	ldi	r18, 0x80	; 128
     c40:	81 30       	cpi	r24, 0x01	; 1
     c42:	92 07       	cpc	r25, r18
     c44:	c8 f5       	brcc	.+114    	; 0xcb8 <partialOutPutToHost+0xb8>
     c46:	00 97       	sbiw	r24, 0x00	; 0
     c48:	29 f4       	brne	.+10     	; 0xc54 <partialOutPutToHost+0x54>
     c4a:	f8 01       	movw	r30, r16
     c4c:	83 81       	ldd	r24, Z+3	; 0x03
     c4e:	67 e1       	ldi	r22, 0x17	; 23
     c50:	78 de       	rcall	.-784    	; 0x942 <uAcknowledgeToHost>
     c52:	32 c0       	rjmp	.+100    	; 0xcb8 <partialOutPutToHost+0xb8>
     c54:	f8 01       	movw	r30, r16
     c56:	27 81       	ldd	r18, Z+7	; 0x07
     c58:	30 85       	ldd	r19, Z+8	; 0x08
     c5a:	88 e3       	ldi	r24, 0x38	; 56
     c5c:	90 e0       	ldi	r25, 0x00	; 0
     c5e:	28 9f       	mul	r18, r24
     c60:	70 01       	movw	r14, r0
     c62:	29 9f       	mul	r18, r25
     c64:	f0 0c       	add	r15, r0
     c66:	38 9f       	mul	r19, r24
     c68:	f0 0c       	add	r15, r0
     c6a:	11 24       	eor	r1, r1
     c6c:	88 ec       	ldi	r24, 0xC8	; 200
     c6e:	9f ef       	ldi	r25, 0xFF	; 255
     c70:	e8 0e       	add	r14, r24
     c72:	f9 1e       	adc	r15, r25
     c74:	80 e0       	ldi	r24, 0x00	; 0
     c76:	90 e8       	ldi	r25, 0x80	; 128
     c78:	8e 19       	sub	r24, r14
     c7a:	9f 09       	sbc	r25, r15
     c7c:	88 33       	cpi	r24, 0x38	; 56
     c7e:	91 05       	cpc	r25, r1
     c80:	18 f4       	brcc	.+6      	; 0xc88 <partialOutPutToHost+0x88>
     c82:	83 81       	ldd	r24, Z+3	; 0x03
     c84:	69 e1       	ldi	r22, 0x19	; 25
     c86:	5d de       	rcall	.-838    	; 0x942 <uAcknowledgeToHost>
     c88:	33 e0       	ldi	r19, 0x03	; 3
     c8a:	c3 2e       	mov	r12, r19
     c8c:	d1 2c       	mov	r13, r1
     c8e:	cc 0e       	add	r12, r28
     c90:	dd 1e       	adc	r13, r29
     c92:	c7 01       	movw	r24, r14
     c94:	68 e3       	ldi	r22, 0x38	; 56
     c96:	70 e0       	ldi	r23, 0x00	; 0
     c98:	a6 01       	movw	r20, r12
     c9a:	c4 da       	rcall	.-2680   	; 0x224 <ee24cxxx_read_bytes>
     c9c:	c6 01       	movw	r24, r12
     c9e:	68 e3       	ldi	r22, 0x38	; 56
     ca0:	70 e0       	ldi	r23, 0x00	; 0
     ca2:	61 dd       	rcall	.-1342   	; 0x766 <Crc16_clc>
     ca4:	ac 01       	movw	r20, r24
     ca6:	f8 01       	movw	r30, r16
     ca8:	25 81       	ldd	r18, Z+5	; 0x05
     caa:	36 81       	ldd	r19, Z+6	; 0x06
     cac:	83 81       	ldd	r24, Z+3	; 0x03
     cae:	67 e3       	ldi	r22, 0x37	; 55
     cb0:	01 e0       	ldi	r16, 0x01	; 1
     cb2:	10 e0       	ldi	r17, 0x00	; 0
     cb4:	76 01       	movw	r14, r12
     cb6:	cb dd       	rcall	.-1130   	; 0x84e <sendProtocolFrameToHost>
     cb8:	ea 96       	adiw	r28, 0x3a	; 58
     cba:	0f b6       	in	r0, 0x3f	; 63
     cbc:	f8 94       	cli
     cbe:	de bf       	out	0x3e, r29	; 62
     cc0:	0f be       	out	0x3f, r0	; 63
     cc2:	cd bf       	out	0x3d, r28	; 61
     cc4:	cf 91       	pop	r28
     cc6:	df 91       	pop	r29
     cc8:	1f 91       	pop	r17
     cca:	0f 91       	pop	r16
     ccc:	ff 90       	pop	r15
     cce:	ef 90       	pop	r14
     cd0:	df 90       	pop	r13
     cd2:	cf 90       	pop	r12
     cd4:	08 95       	ret

00000cd6 <consequentiallyOutPutFramesToHost>:
     cd6:	4f 92       	push	r4
     cd8:	5f 92       	push	r5
     cda:	6f 92       	push	r6
     cdc:	7f 92       	push	r7
     cde:	8f 92       	push	r8
     ce0:	9f 92       	push	r9
     ce2:	af 92       	push	r10
     ce4:	bf 92       	push	r11
     ce6:	cf 92       	push	r12
     ce8:	df 92       	push	r13
     cea:	ef 92       	push	r14
     cec:	ff 92       	push	r15
     cee:	0f 93       	push	r16
     cf0:	1f 93       	push	r17
     cf2:	df 93       	push	r29
     cf4:	cf 93       	push	r28
     cf6:	cd b7       	in	r28, 0x3d	; 61
     cf8:	de b7       	in	r29, 0x3e	; 62
     cfa:	ea 97       	sbiw	r28, 0x3a	; 58
     cfc:	0f b6       	in	r0, 0x3f	; 63
     cfe:	f8 94       	cli
     d00:	de bf       	out	0x3e, r29	; 62
     d02:	0f be       	out	0x3f, r0	; 63
     d04:	cd bf       	out	0x3d, r28	; 61
     d06:	4c 01       	movw	r8, r24
     d08:	fc 01       	movw	r30, r24
     d0a:	84 81       	ldd	r24, Z+4	; 0x04
     d0c:	88 23       	and	r24, r24
     d0e:	09 f4       	brne	.+2      	; 0xd12 <consequentiallyOutPutFramesToHost+0x3c>
     d10:	49 c0       	rjmp	.+146    	; 0xda4 <consequentiallyOutPutFramesToHost+0xce>
     d12:	a8 95       	wdr
     d14:	43 d1       	rcall	.+646    	; 0xf9c <usbPoll>
     d16:	80 e0       	ldi	r24, 0x00	; 0
     d18:	90 e0       	ldi	r25, 0x00	; 0
     d1a:	62 e0       	ldi	r22, 0x02	; 2
     d1c:	70 e0       	ldi	r23, 0x00	; 0
     d1e:	ae 01       	movw	r20, r28
     d20:	4f 5f       	subi	r20, 0xFF	; 255
     d22:	5f 4f       	sbci	r21, 0xFF	; 255
     d24:	7f da       	rcall	.-2818   	; 0x224 <ee24cxxx_read_bytes>
     d26:	3a 81       	ldd	r19, Y+2	; 0x02
     d28:	20 e0       	ldi	r18, 0x00	; 0
     d2a:	89 81       	ldd	r24, Y+1	; 0x01
     d2c:	90 e0       	ldi	r25, 0x00	; 0
     d2e:	82 2b       	or	r24, r18
     d30:	93 2b       	or	r25, r19
     d32:	f0 e8       	ldi	r31, 0x80	; 128
     d34:	81 30       	cpi	r24, 0x01	; 1
     d36:	9f 07       	cpc	r25, r31
     d38:	a8 f5       	brcc	.+106    	; 0xda4 <consequentiallyOutPutFramesToHost+0xce>
     d3a:	00 97       	sbiw	r24, 0x00	; 0
     d3c:	29 f4       	brne	.+10     	; 0xd48 <consequentiallyOutPutFramesToHost+0x72>
     d3e:	f4 01       	movw	r30, r8
     d40:	83 81       	ldd	r24, Z+3	; 0x03
     d42:	67 e1       	ldi	r22, 0x17	; 23
     d44:	fe dd       	rcall	.-1028   	; 0x942 <uAcknowledgeToHost>
     d46:	2e c0       	rjmp	.+92     	; 0xda4 <consequentiallyOutPutFramesToHost+0xce>
     d48:	68 e3       	ldi	r22, 0x38	; 56
     d4a:	70 e0       	ldi	r23, 0x00	; 0
     d4c:	f2 dc       	rcall	.-1564   	; 0x732 <framesAmount>
     d4e:	2c 01       	movw	r4, r24
     d50:	66 24       	eor	r6, r6
     d52:	77 24       	eor	r7, r7
     d54:	cc 24       	eor	r12, r12
     d56:	dd 24       	eor	r13, r13
     d58:	43 e0       	ldi	r20, 0x03	; 3
     d5a:	a4 2e       	mov	r10, r20
     d5c:	b1 2c       	mov	r11, r1
     d5e:	ac 0e       	add	r10, r28
     d60:	bd 1e       	adc	r11, r29
     d62:	1d c0       	rjmp	.+58     	; 0xd9e <consequentiallyOutPutFramesToHost+0xc8>
     d64:	c5 01       	movw	r24, r10
     d66:	68 e3       	ldi	r22, 0x38	; 56
     d68:	70 e0       	ldi	r23, 0x00	; 0
     d6a:	40 e0       	ldi	r20, 0x00	; 0
     d6c:	bb dc       	rcall	.-1674   	; 0x6e4 <makeNullArray>
     d6e:	c3 01       	movw	r24, r6
     d70:	68 e3       	ldi	r22, 0x38	; 56
     d72:	70 e0       	ldi	r23, 0x00	; 0
     d74:	a5 01       	movw	r20, r10
     d76:	56 da       	rcall	.-2900   	; 0x224 <ee24cxxx_read_bytes>
     d78:	c5 01       	movw	r24, r10
     d7a:	68 e3       	ldi	r22, 0x38	; 56
     d7c:	70 e0       	ldi	r23, 0x00	; 0
     d7e:	f3 dc       	rcall	.-1562   	; 0x766 <Crc16_clc>
     d80:	ac 01       	movw	r20, r24
     d82:	08 94       	sec
     d84:	c1 1c       	adc	r12, r1
     d86:	d1 1c       	adc	r13, r1
     d88:	f4 01       	movw	r30, r8
     d8a:	83 81       	ldd	r24, Z+3	; 0x03
     d8c:	67 e3       	ldi	r22, 0x37	; 55
     d8e:	92 01       	movw	r18, r4
     d90:	86 01       	movw	r16, r12
     d92:	75 01       	movw	r14, r10
     d94:	5c dd       	rcall	.-1352   	; 0x84e <sendProtocolFrameToHost>
     d96:	88 e3       	ldi	r24, 0x38	; 56
     d98:	90 e0       	ldi	r25, 0x00	; 0
     d9a:	68 0e       	add	r6, r24
     d9c:	79 1e       	adc	r7, r25
     d9e:	c4 14       	cp	r12, r4
     da0:	d5 04       	cpc	r13, r5
     da2:	00 f3       	brcs	.-64     	; 0xd64 <consequentiallyOutPutFramesToHost+0x8e>
     da4:	ea 96       	adiw	r28, 0x3a	; 58
     da6:	0f b6       	in	r0, 0x3f	; 63
     da8:	f8 94       	cli
     daa:	de bf       	out	0x3e, r29	; 62
     dac:	0f be       	out	0x3f, r0	; 63
     dae:	cd bf       	out	0x3d, r28	; 61
     db0:	cf 91       	pop	r28
     db2:	df 91       	pop	r29
     db4:	1f 91       	pop	r17
     db6:	0f 91       	pop	r16
     db8:	ff 90       	pop	r15
     dba:	ef 90       	pop	r14
     dbc:	df 90       	pop	r13
     dbe:	cf 90       	pop	r12
     dc0:	bf 90       	pop	r11
     dc2:	af 90       	pop	r10
     dc4:	9f 90       	pop	r9
     dc6:	8f 90       	pop	r8
     dc8:	7f 90       	pop	r7
     dca:	6f 90       	pop	r6
     dcc:	5f 90       	pop	r5
     dce:	4f 90       	pop	r4
     dd0:	08 95       	ret

00000dd2 <__vector_11>:
     dd2:	1f 92       	push	r1
     dd4:	0f 92       	push	r0
     dd6:	0f b6       	in	r0, 0x3f	; 63
     dd8:	0f 92       	push	r0
     dda:	11 24       	eor	r1, r1
     ddc:	2f 93       	push	r18
     dde:	8f 93       	push	r24
     de0:	9f 93       	push	r25
     de2:	ef 93       	push	r30
     de4:	ff 93       	push	r31
     de6:	8b b1       	in	r24, 0x0b	; 11
     de8:	9c b1       	in	r25, 0x0c	; 12
     dea:	e0 91 63 00 	lds	r30, 0x0063
     dee:	ef 5f       	subi	r30, 0xFF	; 255
     df0:	ef 71       	andi	r30, 0x1F	; 31
     df2:	20 91 62 00 	lds	r18, 0x0062
     df6:	e2 17       	cp	r30, r18
     df8:	41 f0       	breq	.+16     	; 0xe0a <__vector_11+0x38>
     dfa:	88 71       	andi	r24, 0x18	; 24
     dfc:	e0 93 63 00 	sts	0x0063, r30
     e00:	f0 e0       	ldi	r31, 0x00	; 0
     e02:	ea 57       	subi	r30, 0x7A	; 122
     e04:	ff 4f       	sbci	r31, 0xFF	; 255
     e06:	90 83       	st	Z, r25
     e08:	01 c0       	rjmp	.+2      	; 0xe0c <__vector_11+0x3a>
     e0a:	82 e0       	ldi	r24, 0x02	; 2
     e0c:	80 93 a6 00 	sts	0x00A6, r24
     e10:	ff 91       	pop	r31
     e12:	ef 91       	pop	r30
     e14:	9f 91       	pop	r25
     e16:	8f 91       	pop	r24
     e18:	2f 91       	pop	r18
     e1a:	0f 90       	pop	r0
     e1c:	0f be       	out	0x3f, r0	; 63
     e1e:	0f 90       	pop	r0
     e20:	1f 90       	pop	r1
     e22:	18 95       	reti

00000e24 <__vector_12>:
     e24:	1f 92       	push	r1
     e26:	0f 92       	push	r0
     e28:	0f b6       	in	r0, 0x3f	; 63
     e2a:	0f 92       	push	r0
     e2c:	11 24       	eor	r1, r1
     e2e:	8f 93       	push	r24
     e30:	9f 93       	push	r25
     e32:	ef 93       	push	r30
     e34:	ff 93       	push	r31
     e36:	90 91 64 00 	lds	r25, 0x0064
     e3a:	80 91 65 00 	lds	r24, 0x0065
     e3e:	98 17       	cp	r25, r24
     e40:	61 f0       	breq	.+24     	; 0xe5a <__vector_12+0x36>
     e42:	e0 91 65 00 	lds	r30, 0x0065
     e46:	ef 5f       	subi	r30, 0xFF	; 255
     e48:	ef 71       	andi	r30, 0x1F	; 31
     e4a:	e0 93 65 00 	sts	0x0065, r30
     e4e:	f0 e0       	ldi	r31, 0x00	; 0
     e50:	ea 59       	subi	r30, 0x9A	; 154
     e52:	ff 4f       	sbci	r31, 0xFF	; 255
     e54:	80 81       	ld	r24, Z
     e56:	8c b9       	out	0x0c, r24	; 12
     e58:	01 c0       	rjmp	.+2      	; 0xe5c <__vector_12+0x38>
     e5a:	55 98       	cbi	0x0a, 5	; 10
     e5c:	ff 91       	pop	r31
     e5e:	ef 91       	pop	r30
     e60:	9f 91       	pop	r25
     e62:	8f 91       	pop	r24
     e64:	0f 90       	pop	r0
     e66:	0f be       	out	0x3f, r0	; 63
     e68:	0f 90       	pop	r0
     e6a:	1f 90       	pop	r1
     e6c:	18 95       	reti

00000e6e <uart_init>:
     e6e:	10 92 64 00 	sts	0x0064, r1
     e72:	10 92 65 00 	sts	0x0065, r1
     e76:	10 92 63 00 	sts	0x0063, r1
     e7a:	10 92 62 00 	sts	0x0062, r1
     e7e:	97 ff       	sbrs	r25, 7
     e80:	03 c0       	rjmp	.+6      	; 0xe88 <uart_init+0x1a>
     e82:	22 e0       	ldi	r18, 0x02	; 2
     e84:	2b b9       	out	0x0b, r18	; 11
     e86:	9f 77       	andi	r25, 0x7F	; 127
     e88:	90 bd       	out	0x20, r25	; 32
     e8a:	89 b9       	out	0x09, r24	; 9
     e8c:	88 e9       	ldi	r24, 0x98	; 152
     e8e:	8a b9       	out	0x0a, r24	; 10
     e90:	86 e8       	ldi	r24, 0x86	; 134
     e92:	80 bd       	out	0x20, r24	; 32
     e94:	08 95       	ret

00000e96 <uart_getc>:
     e96:	90 91 63 00 	lds	r25, 0x0063
     e9a:	80 91 62 00 	lds	r24, 0x0062
     e9e:	98 17       	cp	r25, r24
     ea0:	89 f0       	breq	.+34     	; 0xec4 <uart_getc+0x2e>
     ea2:	e0 91 62 00 	lds	r30, 0x0062
     ea6:	ef 5f       	subi	r30, 0xFF	; 255
     ea8:	ef 71       	andi	r30, 0x1F	; 31
     eaa:	e0 93 62 00 	sts	0x0062, r30
     eae:	f0 e0       	ldi	r31, 0x00	; 0
     eb0:	ea 57       	subi	r30, 0x7A	; 122
     eb2:	ff 4f       	sbci	r31, 0xFF	; 255
     eb4:	80 81       	ld	r24, Z
     eb6:	90 91 a6 00 	lds	r25, 0x00A6
     eba:	39 2f       	mov	r19, r25
     ebc:	20 e0       	ldi	r18, 0x00	; 0
     ebe:	28 0f       	add	r18, r24
     ec0:	31 1d       	adc	r19, r1
     ec2:	02 c0       	rjmp	.+4      	; 0xec8 <uart_getc+0x32>
     ec4:	20 e0       	ldi	r18, 0x00	; 0
     ec6:	31 e0       	ldi	r19, 0x01	; 1
     ec8:	c9 01       	movw	r24, r18
     eca:	08 95       	ret

00000ecc <uart_putc>:
     ecc:	90 91 64 00 	lds	r25, 0x0064
     ed0:	9f 5f       	subi	r25, 0xFF	; 255
     ed2:	9f 71       	andi	r25, 0x1F	; 31
     ed4:	20 91 65 00 	lds	r18, 0x0065
     ed8:	92 17       	cp	r25, r18
     eda:	e1 f3       	breq	.-8      	; 0xed4 <uart_putc+0x8>
     edc:	e9 2f       	mov	r30, r25
     ede:	f0 e0       	ldi	r31, 0x00	; 0
     ee0:	ea 59       	subi	r30, 0x9A	; 154
     ee2:	ff 4f       	sbci	r31, 0xFF	; 255
     ee4:	80 83       	st	Z, r24
     ee6:	90 93 64 00 	sts	0x0064, r25
     eea:	55 9a       	sbi	0x0a, 5	; 10
     eec:	08 95       	ret

00000eee <uart_puts>:
     eee:	ef 92       	push	r14
     ef0:	ff 92       	push	r15
     ef2:	cf 93       	push	r28
     ef4:	df 93       	push	r29
     ef6:	e8 2e       	mov	r14, r24
     ef8:	e7 01       	movw	r28, r14
     efa:	7e 01       	movw	r14, r28
     efc:	f9 2e       	mov	r15, r25
     efe:	e7 01       	movw	r28, r14
     f00:	01 c0       	rjmp	.+2      	; 0xf04 <uart_puts+0x16>
     f02:	e4 df       	rcall	.-56     	; 0xecc <uart_putc>
     f04:	89 91       	ld	r24, Y+
     f06:	88 23       	and	r24, r24
     f08:	e1 f7       	brne	.-8      	; 0xf02 <uart_puts+0x14>
     f0a:	df 91       	pop	r29
     f0c:	cf 91       	pop	r28
     f0e:	ff 90       	pop	r15
     f10:	ef 90       	pop	r14
     f12:	08 95       	ret

00000f14 <uart_puts_p>:
     f14:	cf 93       	push	r28
     f16:	df 93       	push	r29
     f18:	ec 01       	movw	r28, r24
     f1a:	01 c0       	rjmp	.+2      	; 0xf1e <uart_puts_p+0xa>
     f1c:	d7 df       	rcall	.-82     	; 0xecc <uart_putc>
     f1e:	fe 01       	movw	r30, r28
     f20:	21 96       	adiw	r28, 0x01	; 1
     f22:	84 91       	lpm	r24, Z+
     f24:	88 23       	and	r24, r24
     f26:	d1 f7       	brne	.-12     	; 0xf1c <uart_puts_p+0x8>
     f28:	df 91       	pop	r29
     f2a:	cf 91       	pop	r28
     f2c:	08 95       	ret

00000f2e <uart_available>:
     f2e:	80 91 63 00 	lds	r24, 0x0063
     f32:	20 91 62 00 	lds	r18, 0x0062
     f36:	90 e0       	ldi	r25, 0x00	; 0
     f38:	4f 96       	adiw	r24, 0x1f	; 31
     f3a:	82 1b       	sub	r24, r18
     f3c:	91 09       	sbc	r25, r1
     f3e:	6f e1       	ldi	r22, 0x1F	; 31
     f40:	70 e0       	ldi	r23, 0x00	; 0
     f42:	85 d3       	rcall	.+1802   	; 0x164e <__divmodhi4>
     f44:	08 95       	ret

00000f46 <uart_flush>:
     f46:	80 91 62 00 	lds	r24, 0x0062
     f4a:	80 93 63 00 	sts	0x0063, r24
     f4e:	08 95       	ret

00000f50 <usbSetInterrupt>:
     f50:	1f 93       	push	r17
     f52:	16 2f       	mov	r17, r22
     f54:	20 91 02 01 	lds	r18, 0x0102
     f58:	24 ff       	sbrs	r18, 4
     f5a:	07 c0       	rjmp	.+14     	; 0xf6a <usbSetInterrupt+0x1a>
     f5c:	20 91 03 01 	lds	r18, 0x0103
     f60:	38 e8       	ldi	r19, 0x88	; 136
     f62:	23 27       	eor	r18, r19
     f64:	20 93 03 01 	sts	0x0103, r18
     f68:	03 c0       	rjmp	.+6      	; 0xf70 <usbSetInterrupt+0x20>
     f6a:	2a e5       	ldi	r18, 0x5A	; 90
     f6c:	20 93 02 01 	sts	0x0102, r18
     f70:	dc 01       	movw	r26, r24
     f72:	81 2f       	mov	r24, r17
     f74:	81 50       	subi	r24, 0x01	; 1
     f76:	90 e0       	ldi	r25, 0x00	; 0
     f78:	8b 5f       	subi	r24, 0xFB	; 251
     f7a:	9e 4f       	sbci	r25, 0xFE	; 254
     f7c:	e4 e0       	ldi	r30, 0x04	; 4
     f7e:	f1 e0       	ldi	r31, 0x01	; 1
     f80:	2d 91       	ld	r18, X+
     f82:	21 93       	st	Z+, r18
     f84:	e8 17       	cp	r30, r24
     f86:	f9 07       	cpc	r31, r25
     f88:	d9 f7       	brne	.-10     	; 0xf80 <usbSetInterrupt+0x30>
     f8a:	84 e0       	ldi	r24, 0x04	; 4
     f8c:	91 e0       	ldi	r25, 0x01	; 1
     f8e:	61 2f       	mov	r22, r17
     f90:	56 d1       	rcall	.+684    	; 0x123e <usbCrc16Append>
     f92:	1c 5f       	subi	r17, 0xFC	; 252
     f94:	10 93 02 01 	sts	0x0102, r17
     f98:	1f 91       	pop	r17
     f9a:	08 95       	ret

00000f9c <usbPoll>:
     f9c:	1f 93       	push	r17
     f9e:	cf 93       	push	r28
     fa0:	df 93       	push	r29
     fa2:	60 91 13 01 	lds	r22, 0x0113
     fa6:	63 50       	subi	r22, 0x03	; 3
     fa8:	67 fd       	sbrc	r22, 7
     faa:	ba c0       	rjmp	.+372    	; 0x1120 <usbPoll+0x184>
     fac:	80 91 10 01 	lds	r24, 0x0110
     fb0:	cc e0       	ldi	r28, 0x0C	; 12
     fb2:	d0 e0       	ldi	r29, 0x00	; 0
     fb4:	c8 1b       	sub	r28, r24
     fb6:	d1 09       	sbc	r29, r1
     fb8:	c9 5e       	subi	r28, 0xE9	; 233
     fba:	de 4f       	sbci	r29, 0xFE	; 254
     fbc:	80 91 0f 01 	lds	r24, 0x010F
     fc0:	8d 32       	cpi	r24, 0x2D	; 45
     fc2:	09 f0       	breq	.+2      	; 0xfc6 <usbPoll+0x2a>
     fc4:	9b c0       	rjmp	.+310    	; 0x10fc <usbPoll+0x160>
     fc6:	68 30       	cpi	r22, 0x08	; 8
     fc8:	09 f0       	breq	.+2      	; 0xfcc <usbPoll+0x30>
     fca:	a8 c0       	rjmp	.+336    	; 0x111c <usbPoll+0x180>
     fcc:	83 ec       	ldi	r24, 0xC3	; 195
     fce:	80 93 f7 00 	sts	0x00F7, r24
     fd2:	8a e5       	ldi	r24, 0x5A	; 90
     fd4:	80 93 60 00 	sts	0x0060, r24
     fd8:	10 92 a7 00 	sts	0x00A7, r1
     fdc:	88 81       	ld	r24, Y
     fde:	80 76       	andi	r24, 0x60	; 96
     fe0:	31 f0       	breq	.+12     	; 0xfee <usbPoll+0x52>
     fe2:	ce 01       	movw	r24, r28
     fe4:	d3 d2       	rcall	.+1446   	; 0x158c <usbFunctionSetup>
     fe6:	8f 3f       	cpi	r24, 0xFF	; 255
     fe8:	09 f4       	brne	.+2      	; 0xfec <usbPoll+0x50>
     fea:	77 c0       	rjmp	.+238    	; 0x10da <usbPoll+0x13e>
     fec:	7d c0       	rjmp	.+250    	; 0x10e8 <usbPoll+0x14c>
     fee:	9a 81       	ldd	r25, Y+2	; 0x02
     ff0:	10 92 00 01 	sts	0x0100, r1
     ff4:	89 81       	ldd	r24, Y+1	; 0x01
     ff6:	88 23       	and	r24, r24
     ff8:	31 f4       	brne	.+12     	; 0x1006 <usbPoll+0x6a>
     ffa:	10 92 01 01 	sts	0x0101, r1
     ffe:	20 e0       	ldi	r18, 0x00	; 0
    1000:	31 e0       	ldi	r19, 0x01	; 1
    1002:	82 e0       	ldi	r24, 0x02	; 2
    1004:	65 c0       	rjmp	.+202    	; 0x10d0 <usbPoll+0x134>
    1006:	85 30       	cpi	r24, 0x05	; 5
    1008:	19 f4       	brne	.+6      	; 0x1010 <usbPoll+0x74>
    100a:	90 93 14 01 	sts	0x0114, r25
    100e:	5d c0       	rjmp	.+186    	; 0x10ca <usbPoll+0x12e>
    1010:	86 30       	cpi	r24, 0x06	; 6
    1012:	09 f0       	breq	.+2      	; 0x1016 <usbPoll+0x7a>
    1014:	44 c0       	rjmp	.+136    	; 0x109e <usbPoll+0x102>
    1016:	8b 81       	ldd	r24, Y+3	; 0x03
    1018:	81 30       	cpi	r24, 0x01	; 1
    101a:	19 f4       	brne	.+6      	; 0x1022 <usbPoll+0x86>
    101c:	88 e4       	ldi	r24, 0x48	; 72
    101e:	90 e0       	ldi	r25, 0x00	; 0
    1020:	1f c0       	rjmp	.+62     	; 0x1060 <usbPoll+0xc4>
    1022:	82 30       	cpi	r24, 0x02	; 2
    1024:	19 f4       	brne	.+6      	; 0x102c <usbPoll+0x90>
    1026:	8a e5       	ldi	r24, 0x5A	; 90
    1028:	90 e0       	ldi	r25, 0x00	; 0
    102a:	2e c0       	rjmp	.+92     	; 0x1088 <usbPoll+0xec>
    102c:	83 30       	cpi	r24, 0x03	; 3
    102e:	f1 f4       	brne	.+60     	; 0x106c <usbPoll+0xd0>
    1030:	99 23       	and	r25, r25
    1032:	41 f4       	brne	.+16     	; 0x1044 <usbPoll+0xa8>
    1034:	86 e2       	ldi	r24, 0x26	; 38
    1036:	90 e0       	ldi	r25, 0x00	; 0
    1038:	90 93 12 01 	sts	0x0112, r25
    103c:	80 93 11 01 	sts	0x0111, r24
    1040:	84 e0       	ldi	r24, 0x04	; 4
    1042:	29 c0       	rjmp	.+82     	; 0x1096 <usbPoll+0xfa>
    1044:	91 30       	cpi	r25, 0x01	; 1
    1046:	41 f4       	brne	.+16     	; 0x1058 <usbPoll+0xbc>
    1048:	8a e2       	ldi	r24, 0x2A	; 42
    104a:	90 e0       	ldi	r25, 0x00	; 0
    104c:	90 93 12 01 	sts	0x0112, r25
    1050:	80 93 11 01 	sts	0x0111, r24
    1054:	8c e0       	ldi	r24, 0x0C	; 12
    1056:	1f c0       	rjmp	.+62     	; 0x1096 <usbPoll+0xfa>
    1058:	92 30       	cpi	r25, 0x02	; 2
    105a:	e1 f4       	brne	.+56     	; 0x1094 <usbPoll+0xf8>
    105c:	86 e3       	ldi	r24, 0x36	; 54
    105e:	90 e0       	ldi	r25, 0x00	; 0
    1060:	90 93 12 01 	sts	0x0112, r25
    1064:	80 93 11 01 	sts	0x0111, r24
    1068:	82 e1       	ldi	r24, 0x12	; 18
    106a:	15 c0       	rjmp	.+42     	; 0x1096 <usbPoll+0xfa>
    106c:	81 32       	cpi	r24, 0x21	; 33
    106e:	41 f4       	brne	.+16     	; 0x1080 <usbPoll+0xe4>
    1070:	8c e6       	ldi	r24, 0x6C	; 108
    1072:	90 e0       	ldi	r25, 0x00	; 0
    1074:	90 93 12 01 	sts	0x0112, r25
    1078:	80 93 11 01 	sts	0x0111, r24
    107c:	89 e0       	ldi	r24, 0x09	; 9
    107e:	0b c0       	rjmp	.+22     	; 0x1096 <usbPoll+0xfa>
    1080:	82 32       	cpi	r24, 0x22	; 34
    1082:	41 f4       	brne	.+16     	; 0x1094 <usbPoll+0xf8>
    1084:	8c e7       	ldi	r24, 0x7C	; 124
    1086:	90 e0       	ldi	r25, 0x00	; 0
    1088:	90 93 12 01 	sts	0x0112, r25
    108c:	80 93 11 01 	sts	0x0111, r24
    1090:	82 e2       	ldi	r24, 0x22	; 34
    1092:	01 c0       	rjmp	.+2      	; 0x1096 <usbPoll+0xfa>
    1094:	80 e0       	ldi	r24, 0x00	; 0
    1096:	90 e4       	ldi	r25, 0x40	; 64
    1098:	90 93 a7 00 	sts	0x00A7, r25
    109c:	25 c0       	rjmp	.+74     	; 0x10e8 <usbPoll+0x14c>
    109e:	88 30       	cpi	r24, 0x08	; 8
    10a0:	69 f0       	breq	.+26     	; 0x10bc <usbPoll+0x120>
    10a2:	89 30       	cpi	r24, 0x09	; 9
    10a4:	19 f4       	brne	.+6      	; 0x10ac <usbPoll+0x110>
    10a6:	90 93 16 01 	sts	0x0116, r25
    10aa:	0f c0       	rjmp	.+30     	; 0x10ca <usbPoll+0x12e>
    10ac:	8a 30       	cpi	r24, 0x0A	; 10
    10ae:	49 f0       	breq	.+18     	; 0x10c2 <usbPoll+0x126>
    10b0:	8b 30       	cpi	r24, 0x0B	; 11
    10b2:	59 f4       	brne	.+22     	; 0x10ca <usbPoll+0x12e>
    10b4:	8b e4       	ldi	r24, 0x4B	; 75
    10b6:	80 93 03 01 	sts	0x0103, r24
    10ba:	07 c0       	rjmp	.+14     	; 0x10ca <usbPoll+0x12e>
    10bc:	26 e1       	ldi	r18, 0x16	; 22
    10be:	31 e0       	ldi	r19, 0x01	; 1
    10c0:	02 c0       	rjmp	.+4      	; 0x10c6 <usbPoll+0x12a>
    10c2:	20 e0       	ldi	r18, 0x00	; 0
    10c4:	31 e0       	ldi	r19, 0x01	; 1
    10c6:	81 e0       	ldi	r24, 0x01	; 1
    10c8:	03 c0       	rjmp	.+6      	; 0x10d0 <usbPoll+0x134>
    10ca:	20 e0       	ldi	r18, 0x00	; 0
    10cc:	31 e0       	ldi	r19, 0x01	; 1
    10ce:	80 e0       	ldi	r24, 0x00	; 0
    10d0:	30 93 12 01 	sts	0x0112, r19
    10d4:	20 93 11 01 	sts	0x0111, r18
    10d8:	07 c0       	rjmp	.+14     	; 0x10e8 <usbPoll+0x14c>
    10da:	98 81       	ld	r25, Y
    10dc:	97 fd       	sbrc	r25, 7
    10de:	8e 81       	ldd	r24, Y+6	; 0x06
    10e0:	90 e8       	ldi	r25, 0x80	; 128
    10e2:	90 93 a7 00 	sts	0x00A7, r25
    10e6:	07 c0       	rjmp	.+14     	; 0x10f6 <usbPoll+0x15a>
    10e8:	9f 81       	ldd	r25, Y+7	; 0x07
    10ea:	99 23       	and	r25, r25
    10ec:	21 f4       	brne	.+8      	; 0x10f6 <usbPoll+0x15a>
    10ee:	9e 81       	ldd	r25, Y+6	; 0x06
    10f0:	98 17       	cp	r25, r24
    10f2:	08 f4       	brcc	.+2      	; 0x10f6 <usbPoll+0x15a>
    10f4:	89 2f       	mov	r24, r25
    10f6:	80 93 61 00 	sts	0x0061, r24
    10fa:	10 c0       	rjmp	.+32     	; 0x111c <usbPoll+0x180>
    10fc:	80 91 a7 00 	lds	r24, 0x00A7
    1100:	87 ff       	sbrs	r24, 7
    1102:	0c c0       	rjmp	.+24     	; 0x111c <usbPoll+0x180>
    1104:	ce 01       	movw	r24, r28
    1106:	35 d2       	rcall	.+1130   	; 0x1572 <usbFunctionWrite>
    1108:	8f 3f       	cpi	r24, 0xFF	; 255
    110a:	21 f4       	brne	.+8      	; 0x1114 <usbPoll+0x178>
    110c:	8e e1       	ldi	r24, 0x1E	; 30
    110e:	80 93 60 00 	sts	0x0060, r24
    1112:	04 c0       	rjmp	.+8      	; 0x111c <usbPoll+0x180>
    1114:	88 23       	and	r24, r24
    1116:	11 f0       	breq	.+4      	; 0x111c <usbPoll+0x180>
    1118:	10 92 61 00 	sts	0x0061, r1
    111c:	10 92 13 01 	sts	0x0113, r1
    1120:	80 91 60 00 	lds	r24, 0x0060
    1124:	84 ff       	sbrs	r24, 4
    1126:	5b c0       	rjmp	.+182    	; 0x11de <usbPoll+0x242>
    1128:	80 91 61 00 	lds	r24, 0x0061
    112c:	8f 3f       	cpi	r24, 0xFF	; 255
    112e:	09 f4       	brne	.+2      	; 0x1132 <usbPoll+0x196>
    1130:	56 c0       	rjmp	.+172    	; 0x11de <usbPoll+0x242>
    1132:	18 2f       	mov	r17, r24
    1134:	89 30       	cpi	r24, 0x09	; 9
    1136:	08 f0       	brcs	.+2      	; 0x113a <usbPoll+0x19e>
    1138:	18 e0       	ldi	r17, 0x08	; 8
    113a:	81 1b       	sub	r24, r17
    113c:	80 93 61 00 	sts	0x0061, r24
    1140:	80 91 f7 00 	lds	r24, 0x00F7
    1144:	98 e8       	ldi	r25, 0x88	; 136
    1146:	89 27       	eor	r24, r25
    1148:	80 93 f7 00 	sts	0x00F7, r24
    114c:	11 23       	and	r17, r17
    114e:	b1 f1       	breq	.+108    	; 0x11bc <usbPoll+0x220>
    1150:	80 91 a7 00 	lds	r24, 0x00A7
    1154:	87 ff       	sbrs	r24, 7
    1156:	08 c0       	rjmp	.+16     	; 0x1168 <usbPoll+0x1cc>
    1158:	88 ef       	ldi	r24, 0xF8	; 248
    115a:	90 e0       	ldi	r25, 0x00	; 0
    115c:	61 2f       	mov	r22, r17
    115e:	cf d1       	rcall	.+926    	; 0x14fe <usbFunctionRead>
    1160:	18 2f       	mov	r17, r24
    1162:	89 30       	cpi	r24, 0x09	; 9
    1164:	b0 f5       	brcc	.+108    	; 0x11d2 <usbPoll+0x236>
    1166:	2a c0       	rjmp	.+84     	; 0x11bc <usbPoll+0x220>
    1168:	20 91 11 01 	lds	r18, 0x0111
    116c:	30 91 12 01 	lds	r19, 0x0112
    1170:	41 2f       	mov	r20, r17
    1172:	41 50       	subi	r20, 0x01	; 1
    1174:	86 ff       	sbrs	r24, 6
    1176:	0e c0       	rjmp	.+28     	; 0x1194 <usbPoll+0x1f8>
    1178:	50 e0       	ldi	r21, 0x00	; 0
    117a:	ea 01       	movw	r28, r20
    117c:	c7 50       	subi	r28, 0x07	; 7
    117e:	df 4f       	sbci	r29, 0xFF	; 255
    1180:	f9 01       	movw	r30, r18
    1182:	a8 ef       	ldi	r26, 0xF8	; 248
    1184:	b0 e0       	ldi	r27, 0x00	; 0
    1186:	84 91       	lpm	r24, Z+
    1188:	8d 93       	st	X+, r24
    118a:	31 96       	adiw	r30, 0x01	; 1
    118c:	ac 17       	cp	r26, r28
    118e:	bd 07       	cpc	r27, r29
    1190:	d1 f7       	brne	.-12     	; 0x1186 <usbPoll+0x1ea>
    1192:	0c c0       	rjmp	.+24     	; 0x11ac <usbPoll+0x210>
    1194:	d9 01       	movw	r26, r18
    1196:	50 e0       	ldi	r21, 0x00	; 0
    1198:	ca 01       	movw	r24, r20
    119a:	87 50       	subi	r24, 0x07	; 7
    119c:	9f 4f       	sbci	r25, 0xFF	; 255
    119e:	e8 ef       	ldi	r30, 0xF8	; 248
    11a0:	f0 e0       	ldi	r31, 0x00	; 0
    11a2:	6d 91       	ld	r22, X+
    11a4:	61 93       	st	Z+, r22
    11a6:	e8 17       	cp	r30, r24
    11a8:	f9 07       	cpc	r31, r25
    11aa:	d9 f7       	brne	.-10     	; 0x11a2 <usbPoll+0x206>
    11ac:	4f 5f       	subi	r20, 0xFF	; 255
    11ae:	5f 4f       	sbci	r21, 0xFF	; 255
    11b0:	42 0f       	add	r20, r18
    11b2:	53 1f       	adc	r21, r19
    11b4:	50 93 12 01 	sts	0x0112, r21
    11b8:	40 93 11 01 	sts	0x0111, r20
    11bc:	88 ef       	ldi	r24, 0xF8	; 248
    11be:	90 e0       	ldi	r25, 0x00	; 0
    11c0:	61 2f       	mov	r22, r17
    11c2:	3d d0       	rcall	.+122    	; 0x123e <usbCrc16Append>
    11c4:	1c 5f       	subi	r17, 0xFC	; 252
    11c6:	1c 30       	cpi	r17, 0x0C	; 12
    11c8:	41 f0       	breq	.+16     	; 0x11da <usbPoll+0x23e>
    11ca:	8f ef       	ldi	r24, 0xFF	; 255
    11cc:	80 93 61 00 	sts	0x0061, r24
    11d0:	04 c0       	rjmp	.+8      	; 0x11da <usbPoll+0x23e>
    11d2:	8f ef       	ldi	r24, 0xFF	; 255
    11d4:	80 93 61 00 	sts	0x0061, r24
    11d8:	1e e1       	ldi	r17, 0x1E	; 30
    11da:	10 93 60 00 	sts	0x0060, r17
    11de:	8a e0       	ldi	r24, 0x0A	; 10
    11e0:	90 b3       	in	r25, 0x10	; 16
    11e2:	94 71       	andi	r25, 0x14	; 20
    11e4:	31 f4       	brne	.+12     	; 0x11f2 <usbPoll+0x256>
    11e6:	81 50       	subi	r24, 0x01	; 1
    11e8:	d9 f7       	brne	.-10     	; 0x11e0 <usbPoll+0x244>
    11ea:	10 92 14 01 	sts	0x0114, r1
    11ee:	10 92 0e 01 	sts	0x010E, r1
    11f2:	df 91       	pop	r29
    11f4:	cf 91       	pop	r28
    11f6:	1f 91       	pop	r17
    11f8:	08 95       	ret

000011fa <usbInit>:
    11fa:	85 b7       	in	r24, 0x35	; 53
    11fc:	83 60       	ori	r24, 0x03	; 3
    11fe:	85 bf       	out	0x35, r24	; 53
    1200:	8b b7       	in	r24, 0x3b	; 59
    1202:	80 64       	ori	r24, 0x40	; 64
    1204:	8b bf       	out	0x3b, r24	; 59
    1206:	8b e4       	ldi	r24, 0x4B	; 75
    1208:	80 93 03 01 	sts	0x0103, r24
    120c:	8a e5       	ldi	r24, 0x5A	; 90
    120e:	80 93 02 01 	sts	0x0102, r24
    1212:	08 95       	ret

00001214 <usbCrc16>:
;   r20/21: polynomial
;   r23: scratch
;   r24/25: crc-sum
;   r26/27=X: ptr
usbCrc16:
    mov     ptrL, argPtrL
    1214:	a8 2f       	mov	r26, r24
    mov     ptrH, argPtrH
    1216:	b9 2f       	mov	r27, r25
    ldi     resCrcL, 0
    1218:	80 e0       	ldi	r24, 0x00	; 0
    ldi     resCrcH, 0
    121a:	90 e0       	ldi	r25, 0x00	; 0
    ldi     polyL, lo8(0xa001)
    121c:	41 e0       	ldi	r20, 0x01	; 1
    ldi     polyH, hi8(0xa001)
    121e:	50 ea       	ldi	r21, 0xA0	; 160
    com     argLen      ; argLen = -argLen - 1
    1220:	60 95       	com	r22

00001222 <crcByteLoop>:
crcByteLoop:
    subi    argLen, -1
    1222:	6f 5f       	subi	r22, 0xFF	; 255
    brcc    crcReady    ;  ,  ,    
    1224:	58 f4       	brcc	.+22     	; 0x123c <crcReady>
    ld      byte, ptr+
    1226:	2d 91       	ld	r18, X+
    ldi     bitCnt, -8  ;   ,  ,    ,   
    1228:	38 ef       	ldi	r19, 0xF8	; 248
    eor     resCrcL, byte
    122a:	82 27       	eor	r24, r18

0000122c <crcBitLoop>:
crcBitLoop:
    ror     resCrcH     ;    
    122c:	97 95       	ror	r25
    ror     resCrcL
    122e:	87 95       	ror	r24
    brcs    crcNoXor
    1230:	10 f0       	brcs	.+4      	; 0x1236 <crcNoXor>
    eor     resCrcL, polyL
    1232:	84 27       	eor	r24, r20
    eor     resCrcH, polyH
    1234:	95 27       	eor	r25, r21

00001236 <crcNoXor>:
crcNoXor:
    subi    bitCnt, -1
    1236:	3f 5f       	subi	r19, 0xFF	; 255
    brcs    crcBitLoop
    1238:	c8 f3       	brcs	.-14     	; 0x122c <crcBitLoop>
    rjmp    crcByteLoop
    123a:	f3 cf       	rjmp	.-26     	; 0x1222 <crcByteLoop>

0000123c <crcReady>:
crcReady:
    ret
    123c:	08 95       	ret

0000123e <usbCrc16Append>:
;  Reimar Doeffinger    CRC!

; extern unsigned usbCrc16Append(unsigned char *data, unsigned char len);
usbCrc16Append:
    rcall   usbCrc16
    123e:	ea df       	rcall	.-44     	; 0x1214 <usbCrc16>
    st      ptr+, resCrcL
    1240:	8d 93       	st	X+, r24
    st      ptr+, resCrcH
    1242:	9d 93       	st	X+, r25
    ret
    1244:	08 95       	ret

00001246 <__vector_1>:
;max   : 34  -> max 25   
;max  : [ret(2), YL, SREG, YH, shift, x1, x2, x3, cnt, x4] = 11 
;   -      SOF.
USB_INTR_VECTOR:
;  : YL, SREG [sofError], YH, shift, x1, x2, x3, cnt
    push    YL              ;2 [35] push    .   ASAP
    1246:	cf 93       	push	r28
    in      YL, SREG        ;1 [37]
    1248:	cf b7       	in	r28, 0x3f	; 63
    push    YL              ;2 [39]
    124a:	cf 93       	push	r28

0000124c <waitForJ>:
;----------------------------------------------------------------------------
; sync- (D-)   (LSb)   (MSb) : 01010100 [1 =  (idle) = J, 0 = K]
;sync  J   K    sync --    
;    ,    IDLE  SE1 (== )
waitForJ:
    sbis    USBIN, USBMINUS ;1 [40]  D- == 1
    124c:	84 9b       	sbis	0x10, 4	; 16
    rjmp    waitForJ        ;2
    124e:	fe cf       	rjmp	.-4      	; 0x124c <waitForJ>

00001250 <waitForK>:
waitForK:
;      1/4 ,   .
    sbis    USBIN, USBMINUS
    1250:	84 9b       	sbis	0x10, 4	; 16
    rjmp    foundK
    1252:	09 c0       	rjmp	.+18     	; 0x1266 <foundK>
    sbis    USBIN, USBMINUS
    1254:	84 9b       	sbis	0x10, 4	; 16
    rjmp    foundK
    1256:	07 c0       	rjmp	.+14     	; 0x1266 <foundK>
    sbis    USBIN, USBMINUS
    1258:	84 9b       	sbis	0x10, 4	; 16
    rjmp    foundK
    125a:	05 c0       	rjmp	.+10     	; 0x1266 <foundK>
    sbis    USBIN, USBMINUS
    125c:	84 9b       	sbis	0x10, 4	; 16
    rjmp    foundK
    125e:	03 c0       	rjmp	.+6      	; 0x1266 <foundK>
    sbis    USBIN, USBMINUS
    1260:	84 9b       	sbis	0x10, 4	; 16
    rjmp    foundK
    1262:	01 c0       	rjmp	.+2      	; 0x1266 <foundK>
#if USB_COUNT_SOF
    lds     YL, usbSofCount
    inc     YL
    sts     usbSofCount, YL
#endif  /* USB_COUNT_SOF */
    rjmp    sofError
    1264:	a3 c0       	rjmp	.+326    	; 0x13ac <sofError>

00001266 <foundK>:
foundK:
;{3, 5}    D-  : 4  [  4   ]
;   1  ,   setup,    
; .    -     sync ( K)  
;  
    push    YH                  ;2 [2]
    1266:	df 93       	push	r29
    lds     YL, usbInputBufOffset;2 [4]
    1268:	c0 91 10 01 	lds	r28, 0x0110
    clr     YH                  ;1 [5]
    126c:	dd 27       	eor	r29, r29
    subi    YL, lo8(-(usbRxBuf));1 [6]
    126e:	c9 5e       	subi	r28, 0xE9	; 233
    sbci    YH, hi8(-(usbRxBuf));1 [7]
    1270:	de 4f       	sbci	r29, 0xFE	; 254

    sbis    USBIN, USBMINUS ;1 [8]   2  K [ 1   ]
    1272:	84 9b       	sbis	0x10, 4	; 16
    rjmp    haveTwoBitsK    ;2 [10]
    1274:	02 c0       	rjmp	.+4      	; 0x127a <haveTwoBitsK>
    pop     YH              ;2 [11]   push
    1276:	df 91       	pop	r29
    rjmp    waitForK        ;2 [13]     sync,   
    1278:	eb cf       	rjmp	.-42     	; 0x1250 <waitForK>

0000127a <haveTwoBitsK>:
haveTwoBitsK:
;----------------------------------------------------------------------------
;     ,     :
;----------------------------------------------------------------------------
    push    shift           ;2 [16]
    127a:	2f 93       	push	r18
    push    x1              ;2 [12]
    127c:	0f 93       	push	r16
    push    x2              ;2 [14]
    127e:	1f 93       	push	r17

    in      x1, USBIN       ;1 [17] <--   0
    1280:	00 b3       	in	r16, 0x10	; 16
    ldi     shift, 0xff     ;1 [18]
    1282:	2f ef       	ldi	r18, 0xFF	; 255
    bst     x1, USBMINUS    ;1 [19]
    1284:	04 fb       	bst	r16, 4
    bld     shift, 0        ;1 [20]
    1286:	20 f9       	bld	r18, 0
    push    x3              ;2 [22]
    1288:	4f 93       	push	r20
    push    cnt             ;2 [24]
    128a:	3f 93       	push	r19
    
    in      x2, USBIN       ;1 [25] <--   1
    128c:	10 b3       	in	r17, 0x10	; 16
    ser     x3              ;1 [26] [  ]
    128e:	4f ef       	ldi	r20, 0xFF	; 255
    eor     x1, x2          ;1 [27]
    1290:	01 27       	eor	r16, r17
    bst     x1, USBMINUS    ;1 [28]
    1292:	04 fb       	bst	r16, 4
    bld     shift, 1        ;1 [29]
    1294:	21 f9       	bld	r18, 1
    ldi     cnt, USB_BUFSIZE;1 [30] [  ]
    1296:	3b e0       	ldi	r19, 0x0B	; 11
    rjmp    rxbit2          ;2 [32]
    1298:	31 c0       	rjmp	.+98     	; 0x12fc <rxbit2>

0000129a <unstuff0>:
;----------------------------------------------------------------------------
;   (   -     )
;----------------------------------------------------------------------------

unstuff0:               ;1 ( )
    andi    x3, ~0x01   ;1 [15]
    129a:	4e 7f       	andi	r20, 0xFE	; 254
    mov     x1, x2      ;1 [16] x2    (stuffed) 
    129c:	01 2f       	mov	r16, r17
    in      x2, USBIN   ;1 [17] <--   1 
    129e:	10 b3       	in	r17, 0x10	; 16
    ori     shift, 0x01 ;1 [18]
    12a0:	21 60       	ori	r18, 0x01	; 1
    rjmp    didUnstuff0 ;2 [20]
    12a2:	28 c0       	rjmp	.+80     	; 0x12f4 <didUnstuff0>

000012a4 <unstuff1>:

unstuff1:               ;1 ( )
    mov     x2, x1      ;1 [21] x1    (stuffed) 
    12a4:	10 2f       	mov	r17, r16
    andi    x3, ~0x02   ;1 [22]
    12a6:	4d 7f       	andi	r20, 0xFD	; 253
    ori     shift, 0x02 ;1 [23]
    12a8:	22 60       	ori	r18, 0x02	; 2
    nop                 ;1 [24]
    12aa:	00 00       	nop
    in      x1, USBIN   ;1 [25] <--   2 
    12ac:	00 b3       	in	r16, 0x10	; 16
    rjmp    didUnstuff1 ;2 [27]
    12ae:	29 c0       	rjmp	.+82     	; 0x1302 <didUnstuff1>

000012b0 <unstuff2>:

unstuff2:               ;1 ( )
    andi    x3, ~0x04   ;1 [29]
    12b0:	4b 7f       	andi	r20, 0xFB	; 251
    ori     shift, 0x04 ;1 [30]
    12b2:	24 60       	ori	r18, 0x04	; 4
    mov     x1, x2      ;1 [31] x2    (stuffed) 
    12b4:	01 2f       	mov	r16, r17
    nop                 ;1 [32]
    12b6:	00 00       	nop
    in      x2, USBIN   ;1 [33] <--   3
    12b8:	10 b3       	in	r17, 0x10	; 16
    rjmp    didUnstuff2 ;2 [35]
    12ba:	2b c0       	rjmp	.+86     	; 0x1312 <didUnstuff2>

000012bc <unstuff3>:

unstuff3:               ;1 ( )
    in      x2, USBIN   ;1 [34] <--  stuffed  3 [   ]
    12bc:	10 b3       	in	r17, 0x10	; 16
    andi    x3, ~0x08   ;1 [35]
    12be:	47 7f       	andi	r20, 0xF7	; 247
    ori     shift, 0x08 ;1 [36]
    12c0:	28 60       	ori	r18, 0x08	; 8
    rjmp    didUnstuff3 ;2 [38]
    12c2:	2a c0       	rjmp	.+84     	; 0x1318 <didUnstuff3>

000012c4 <unstuff4>:

unstuff4:               ;1 ( )
    andi    x3, ~0x10   ;1 [40]
    12c4:	4f 7e       	andi	r20, 0xEF	; 239
    in      x1, USBIN   ;1 [41] <--    4
    12c6:	00 b3       	in	r16, 0x10	; 16
    ori     shift, 0x10 ;1 [42]
    12c8:	20 61       	ori	r18, 0x10	; 16
    rjmp    didUnstuff4 ;2 [44]
    12ca:	2c c0       	rjmp	.+88     	; 0x1324 <didUnstuff4>

000012cc <unstuff5>:

unstuff5:               ;1 ( )
    andi    x3, ~0x20   ;1 [48]
    12cc:	4f 7d       	andi	r20, 0xDF	; 223
    in      x2, USBIN   ;1 [49] <--    5
    12ce:	10 b3       	in	r17, 0x10	; 16
    ori     shift, 0x20 ;1 [50]
    12d0:	20 62       	ori	r18, 0x20	; 32
    rjmp    didUnstuff5 ;2 [52]
    12d2:	2f c0       	rjmp	.+94     	; 0x1332 <didUnstuff5>

000012d4 <unstuff6>:

unstuff6:               ;1 ( )
    andi    x3, ~0x40   ;1 [56]
    12d4:	4f 7b       	andi	r20, 0xBF	; 191
    in      x1, USBIN   ;1 [57] <--    6
    12d6:	00 b3       	in	r16, 0x10	; 16
    ori     shift, 0x40 ;1 [58]
    12d8:	20 64       	ori	r18, 0x40	; 64
    rjmp    didUnstuff6 ;2 [60]
    12da:	32 c0       	rjmp	.+100    	; 0x1340 <didUnstuff6>

000012dc <rxLoop>:
; bit 4:    
; bit 5:    
; bit 6:    
; bit 7:    , eor
rxLoop:
    eor     x3, shift   ;1 [0] : x3 0   ,   , 1  
    12dc:	42 27       	eor	r20, r18
    in      x1, USBIN   ;1 [1] <--   0
    12de:	00 b3       	in	r16, 0x10	; 16
    st      y+, x3      ;2 [3]  
    12e0:	49 93       	st	Y+, r20
    ser     x3          ;1 [4]
    12e2:	4f ef       	ldi	r20, 0xFF	; 255
    nop                 ;1 [5]
    12e4:	00 00       	nop
    eor     x2, x1      ;1 [6]
    12e6:	10 27       	eor	r17, r16
    bst     x2, USBMINUS;1 [7]
    12e8:	14 fb       	bst	r17, 4
    bld     shift, 0    ;1 [8]
    12ea:	20 f9       	bld	r18, 0
    in      x2, USBIN   ;1 [9] <--   1 (  stuffed- 0)
    12ec:	10 b3       	in	r17, 0x10	; 16
    andi    x2, USBMASK ;1 [10]
    12ee:	14 71       	andi	r17, 0x14	; 20
    breq    se0         ;1 [11] SE0    1
    12f0:	c9 f1       	breq	.+114    	; 0x1364 <se0>
    andi    shift, 0xf9 ;1 [12]
    12f2:	29 7f       	andi	r18, 0xF9	; 249

000012f4 <didUnstuff0>:
didUnstuff0:
    breq    unstuff0    ;1 [13]
    12f4:	91 f2       	breq	.-92     	; 0x129a <unstuff0>
    eor     x1, x2      ;1 [14]
    12f6:	01 27       	eor	r16, r17
    bst     x1, USBMINUS;1 [15]
    12f8:	04 fb       	bst	r16, 4
    bld     shift, 1    ;1 [16]
    12fa:	21 f9       	bld	r18, 1

000012fc <rxbit2>:
rxbit2:
    in      x1, USBIN   ;1 [17] <--   2 (  stuffed- 1)
    12fc:	00 b3       	in	r16, 0x10	; 16
    andi    shift, 0xf3 ;1 [18]
    12fe:	23 7f       	andi	r18, 0xF3	; 243
    breq    unstuff1    ;1 [19] do remaining work for bit 1
    1300:	89 f2       	breq	.-94     	; 0x12a4 <unstuff1>

00001302 <didUnstuff1>:
didUnstuff1:
    subi    cnt, 1      ;1 [20]
    1302:	31 50       	subi	r19, 0x01	; 1
    brcs    overflow    ;1 [21] loop control
    1304:	58 f1       	brcs	.+86     	; 0x135c <overflow>
    eor     x2, x1      ;1 [22]
    1306:	10 27       	eor	r17, r16
    bst     x2, USBMINUS;1 [23]
    1308:	14 fb       	bst	r17, 4
    bld     shift, 2    ;1 [24]
    130a:	22 f9       	bld	r18, 2
    in      x2, USBIN   ;1 [25] <--   3 (  stuffed- 2)
    130c:	10 b3       	in	r17, 0x10	; 16
    andi    shift, 0xe7 ;1 [26]
    130e:	27 7e       	andi	r18, 0xE7	; 231
    breq    unstuff2    ;1 [27]
    1310:	79 f2       	breq	.-98     	; 0x12b0 <unstuff2>

00001312 <didUnstuff2>:
didUnstuff2:
    eor     x1, x2      ;1 [28]
    1312:	01 27       	eor	r16, r17
    bst     x1, USBMINUS;1 [29]
    1314:	04 fb       	bst	r16, 4
    bld     shift, 3    ;1 [30]
    1316:	23 f9       	bld	r18, 3

00001318 <didUnstuff3>:
didUnstuff3:
    andi    shift, 0xcf ;1 [31]
    1318:	2f 7c       	andi	r18, 0xCF	; 207
    breq    unstuff3    ;1 [32]
    131a:	81 f2       	breq	.-96     	; 0x12bc <unstuff3>
    in      x1, USBIN   ;1 [33] <--   4
    131c:	00 b3       	in	r16, 0x10	; 16
    eor     x2, x1      ;1 [34]
    131e:	10 27       	eor	r17, r16
    bst     x2, USBMINUS;1 [35]
    1320:	14 fb       	bst	r17, 4
    bld     shift, 4    ;1 [36]
    1322:	24 f9       	bld	r18, 4

00001324 <didUnstuff4>:
didUnstuff4:
    andi    shift, 0x9f ;1 [37]
    1324:	2f 79       	andi	r18, 0x9F	; 159
    breq    unstuff4    ;1 [38]
    1326:	71 f2       	breq	.-100    	; 0x12c4 <unstuff4>
    nop2                ;2 [40]
    1328:	00 c0       	rjmp	.+0      	; 0x132a <didUnstuff4+0x6>
    in      x2, USBIN   ;1 [41] <--   5
    132a:	10 b3       	in	r17, 0x10	; 16
    eor     x1, x2      ;1 [42]
    132c:	01 27       	eor	r16, r17
    bst     x1, USBMINUS;1 [43]
    132e:	04 fb       	bst	r16, 4
    bld     shift, 5    ;1 [44]
    1330:	25 f9       	bld	r18, 5

00001332 <didUnstuff5>:
didUnstuff5:
    andi    shift, 0x3f ;1 [45]
    1332:	2f 73       	andi	r18, 0x3F	; 63
    breq    unstuff5    ;1 [46]
    1334:	59 f2       	breq	.-106    	; 0x12cc <unstuff5>
    nop2                ;2 [48]
    1336:	00 c0       	rjmp	.+0      	; 0x1338 <didUnstuff5+0x6>
    in      x1, USBIN   ;1 [49] <--   6
    1338:	00 b3       	in	r16, 0x10	; 16
    eor     x2, x1      ;1 [50]
    133a:	10 27       	eor	r17, r16
    bst     x2, USBMINUS;1 [51]
    133c:	14 fb       	bst	r17, 4
    bld     shift, 6    ;1 [52]
    133e:	26 f9       	bld	r18, 6

00001340 <didUnstuff6>:
didUnstuff6:
    cpi     shift, 0x02 ;1 [53]
    1340:	22 30       	cpi	r18, 0x02	; 2
    brlo    unstuff6    ;1 [54]
    1342:	40 f2       	brcs	.-112    	; 0x12d4 <unstuff6>
    nop2                ;2 [56]
    1344:	00 c0       	rjmp	.+0      	; 0x1346 <didUnstuff6+0x6>
    in      x2, USBIN   ;1 [57] <--   7
    1346:	10 b3       	in	r17, 0x10	; 16
    eor     x1, x2      ;1 [58]
    1348:	01 27       	eor	r16, r17
    bst     x1, USBMINUS;1 [59]
    134a:	04 fb       	bst	r16, 4
    bld     shift, 7    ;1 [60]
    134c:	27 f9       	bld	r18, 7

0000134e <didUnstuff7>:
didUnstuff7:
    cpi     shift, 0x04 ;1 [61]
    134e:	24 30       	cpi	r18, 0x04	; 4
    brsh    rxLoop      ;2 [63]  
    1350:	28 f6       	brcc	.-118    	; 0x12dc <rxLoop>

00001352 <unstuff7>:
unstuff7:
    andi    x3, ~0x80   ;1 [63]
    1352:	4f 77       	andi	r20, 0x7F	; 127
    ori     shift, 0x80 ;1 [64]
    1354:	20 68       	ori	r18, 0x80	; 128
    in      x2, USBIN   ;1 [65] <--  stuffed- 7
    1356:	10 b3       	in	r17, 0x10	; 16
    nop                 ;1 [66]
    1358:	00 00       	nop
    rjmp    didUnstuff7 ;2 [68]
    135a:	f9 cf       	rjmp	.-14     	; 0x134e <didUnstuff7>

0000135c <overflow>:
*/

#define token   x1

overflow:
    ldi     x2, 1<<USB_INTR_PENDING_BIT
    135c:	10 e4       	ldi	r17, 0x40	; 64
    USB_STORE_PENDING(x2)       ;    
    135e:	1a bf       	out	0x3a, r17	; 58

00001360 <ignorePacket>:
ignorePacket:
    clr     token
    1360:	00 27       	eor	r16, r16
    rjmp    storeTokenAndReturn
    1362:	19 c0       	rjmp	.+50     	; 0x1396 <handleSetupOrOut>

00001364 <se0>:
;    (         SE0)
;----------------------------------------------------------------------------
;    non-error    .
;    CRC,      .
se0:
    subi    cnt, USB_BUFSIZE    ;[5]
    1364:	3b 50       	subi	r19, 0x0B	; 11
    neg     cnt                 ;[6]
    1366:	31 95       	neg	r19
    sub     YL, cnt             ;[7]
    1368:	c3 1b       	sub	r28, r19
    sbci    YH, 0               ;[8]
    136a:	d0 40       	sbci	r29, 0x00	; 0
    ldi     x2, 1<<USB_INTR_PENDING_BIT ;[9]
    136c:	10 e4       	ldi	r17, 0x40	; 64
    USB_STORE_PENDING(x2)       ;[10]       . SE0  .
    136e:	1a bf       	out	0x3a, r17	; 58

    ld      token, y            ;[11]
    1370:	08 81       	ld	r16, Y
    cpi     token, USBPID_DATA0 ;[13]
    1372:	03 3c       	cpi	r16, 0xC3	; 195
    breq    handleData          ;[14]
    1374:	f9 f0       	breq	.+62     	; 0x13b4 <handleData>
    cpi     token, USBPID_DATA1 ;[15]
    1376:	0b 34       	cpi	r16, 0x4B	; 75
    breq    handleData          ;[16]
    1378:	e9 f0       	breq	.+58     	; 0x13b4 <handleData>
    lds     shift, usbDeviceAddr;[17]
    137a:	20 91 0e 01 	lds	r18, 0x010E
    ldd     x2, y+1             ;[19] ADDR  1     (endpoint)
    137e:	19 81       	ldd	r17, Y+1	; 0x01
    lsl     x2                  ;[21]  1  endpoint
    1380:	11 0f       	add	r17, r17
    cpse    x2, shift           ;[22]
    1382:	12 13       	cpse	r17, r18
    rjmp    ignorePacket        ;[23]
    1384:	ed cf       	rjmp	.-38     	; 0x1360 <ignorePacket>
/*    endpoint  x3,    */
#if USB_CFG_HAVE_INTRIN_ENDPOINT || USB_CFG_IMPLEMENT_FN_WRITEOUT
    ldd     x3, y+2             ;[24]  endpoint + crc
    1386:	4a 81       	ldd	r20, Y+2	; 0x02
    rol     x3                  ;[26]    (LSB) endpoint
    1388:	44 1f       	adc	r20, r20
#endif
    cpi     token, USBPID_IN    ;[27]
    138a:	09 36       	cpi	r16, 0x69	; 105
    breq    handleIn            ;[28]
    138c:	41 f1       	breq	.+80     	; 0x13de <handleIn>
    cpi     token, USBPID_SETUP ;[29]
    138e:	0d 32       	cpi	r16, 0x2D	; 45
    breq    handleSetupOrOut    ;[30]
    1390:	11 f0       	breq	.+4      	; 0x1396 <handleSetupOrOut>
    cpi     token, USBPID_OUT   ;[31]
    1392:	01 3e       	cpi	r16, 0xE1	; 225
    brne    ignorePacket        ;[32]   ack, nak   
    1394:	29 f7       	brne	.-54     	; 0x1360 <ignorePacket>

00001396 <handleSetupOrOut>:
    andi    x3, 0xf             ;[32]
    breq    storeTokenAndReturn ;[33]
    mov     token, x3           ;[34] ,   endpoint x OUT
#endif
storeTokenAndReturn:
    sts     usbCurrentTok, token;[35]
    1396:	00 93 15 01 	sts	0x0115, r16

0000139a <doReturn>:
doReturn:
    POP_STANDARD                ;[37] 12...16 
    139a:	3f 91       	pop	r19
    139c:	4f 91       	pop	r20
    139e:	1f 91       	pop	r17
    13a0:	0f 91       	pop	r16
    13a2:	2f 91       	pop	r18
    13a4:	df 91       	pop	r29
    USB_LOAD_PENDING(YL)        ;[49]
    13a6:	ca b7       	in	r28, 0x3a	; 58
    sbrc    YL, USB_INTR_PENDING_BIT;[50] ,   
    13a8:	c6 fd       	sbrc	r28, 6
    rjmp    waitForJ            ;[51]   pop  push --   
    13aa:	50 cf       	rjmp	.-352    	; 0x124c <waitForJ>

000013ac <sofError>:
sofError:
    POP_RETI                    ; 
    13ac:	cf 91       	pop	r28
    13ae:	cf bf       	out	0x3f, r28	; 63
    13b0:	cf 91       	pop	r28
    reti
    13b2:	18 95       	reti

000013b4 <handleData>:

handleData:
    lds     token, usbCurrentTok;[18]
    13b4:	00 91 15 01 	lds	r16, 0x0115
    tst     token               ;[20]
    13b8:	00 23       	and	r16, r16
    breq    doReturn            ;[21]
    13ba:	79 f3       	breq	.-34     	; 0x139a <doReturn>
    lds     x2, usbRxLen        ;[22]
    13bc:	10 91 13 01 	lds	r17, 0x0113
    tst     x2                  ;[24]
    13c0:	11 23       	and	r17, r17
    brne    sendNakAndReti      ;[25]
    13c2:	a1 f5       	brne	.+104    	; 0x142c <sendNakAndReti>
; 2006-03-11:  2     ,    ,
;  usbPoll()       4 ms.
    cpi     cnt, 4              ;[26]        --   ack
    13c4:	34 30       	cpi	r19, 0x04	; 4
    brmi    sendAckAndReti      ;[27]  rx   --     NAK   SETUP
    13c6:	a2 f1       	brmi	.+104    	; 0x1430 <sendAckAndReti>
    sts     usbRxLen, cnt       ;[28]   ,  
    13c8:	30 93 13 01 	sts	0x0113, r19
    sts     usbRxToken, token   ;[30]
    13cc:	00 93 0f 01 	sts	0x010F, r16
    lds     x2, usbInputBufOffset;[32]  
    13d0:	10 91 10 01 	lds	r17, 0x0110
    ldi     cnt, USB_BUFSIZE    ;[34]
    13d4:	3b e0       	ldi	r19, 0x0B	; 11
    sub     cnt, x2             ;[35]
    13d6:	31 1b       	sub	r19, r17
    sts     usbInputBufOffset, cnt;[36]   
    13d8:	30 93 10 01 	sts	0x0110, r19
    rjmp    sendAckAndReti      ;[38] 40 + 17 = 57   SOP
    13dc:	29 c0       	rjmp	.+82     	; 0x1430 <sendAckAndReti>

000013de <handleIn>:

handleIn:
;           C     
;     .       ,
;    tx   .
    lds     x1, usbRxLen        ;[30]
    13de:	00 91 13 01 	lds	r16, 0x0113
    cpi     x1, 1               ;[32]      (flow control), 0  " "
    13e2:	01 30       	cpi	r16, 0x01	; 1
    brge    sendNakAndReti      ;[33]   ?
    13e4:	1c f5       	brge	.+70     	; 0x142c <sendNakAndReti>
    ldi     x1, USBPID_NAK      ;[34]    usbTxLen
    13e6:	0a e5       	ldi	r16, 0x5A	; 90
#if USB_CFG_HAVE_INTRIN_ENDPOINT
    andi    x3, 0xf             ;[35] x3  endpoint
    13e8:	4f 70       	andi	r20, 0x0F	; 15
    brne    handleIn1           ;[36]
    13ea:	49 f4       	brne	.+18     	; 0x13fe <handleIn1>
#endif
    lds     cnt, usbTxLen       ;[37]
    13ec:	30 91 60 00 	lds	r19, 0x0060
    sbrc    cnt, 4              ;[39]   handshake    4 
    13f0:	34 fd       	sbrc	r19, 4
    rjmp    sendCntAndReti      ;[40] 42 + 16 = 58   SOP
    13f2:	20 c0       	rjmp	.+64     	; 0x1434 <sendCntAndReti>
    sts     usbTxLen, x1        ;[41] x1 == USBPID_NAK   
    13f4:	00 93 60 00 	sts	0x0060, r16
    ldi     YL, lo8(usbTxBuf)   ;[43]
    13f8:	c7 ef       	ldi	r28, 0xF7	; 247
    ldi     YH, hi8(usbTxBuf)   ;[44]
    13fa:	d0 e0       	ldi	r29, 0x00	; 0
    rjmp    usbSendAndReti      ;[45] 57 + 12 = 59   SOP
    13fc:	1f c0       	rjmp	.+62     	; 0x143c <usbSendAndReti>

000013fe <handleIn1>:
#if USB_CFG_HAVE_INTRIN_ENDPOINT3
; 2006-06-10   O.Tamura:   INTR IN / BULK IN endpoint
    cpi     x3, USB_CFG_EP3_NUMBER;[38]
    breq    handleIn3           ;[39]
#endif
    lds     cnt, usbTxLen1      ;[40]
    13fe:	30 91 02 01 	lds	r19, 0x0102
    sbrc    cnt, 4              ;[42]   handshake    4 
    1402:	34 fd       	sbrc	r19, 4
    rjmp    sendCntAndReti      ;[43] 47 + 16 = 63   SOP
    1404:	17 c0       	rjmp	.+46     	; 0x1434 <sendCntAndReti>
    sts     usbTxLen1, x1       ;[44] x1 == USBPID_NAK   
    1406:	00 93 02 01 	sts	0x0102, r16
    ldi     YL, lo8(usbTxBuf1)  ;[46]
    140a:	c3 e0       	ldi	r28, 0x03	; 3
    ldi     YH, hi8(usbTxBuf1)  ;[47]
    140c:	d1 e0       	ldi	r29, 0x01	; 1
    rjmp    usbSendAndReti      ;[48] 50 + 12 = 62   SOP
    140e:	16 c0       	rjmp	.+44     	; 0x143c <usbSendAndReti>

00001410 <bitstuff0>:
;----------------------------------------------------------------------------
;  
;----------------------------------------------------------------------------

bitstuff0:                  ;1 ( )
    eor     x1, x4          ;1
    1410:	05 27       	eor	r16, r21
    ldi     x2, 0           ;1
    1412:	10 e0       	ldi	r17, 0x00	; 0
    out     USBOUT, x1      ;1 <-- 
    1414:	02 bb       	out	0x12, r16	; 18
    rjmp    didStuff0       ;2    2  
    1416:	1f c0       	rjmp	.+62     	; 0x1456 <didStuff0>

00001418 <bitstuff1>:
bitstuff1:                  ;1 ( )
    eor     x1, x4          ;1
    1418:	05 27       	eor	r16, r21
    rjmp    didStuff1       ;2  ,  C  ,    ,   OUT   0 (ror)  x2
    141a:	22 c0       	rjmp	.+68     	; 0x1460 <didStuff1>

0000141c <bitstuff2>:
bitstuff2:                  ;1 ( )
    eor     x1, x4          ;1
    141c:	05 27       	eor	r16, r21
    rjmp    didStuff2       ;2    4  ,     0  x2
    141e:	27 c0       	rjmp	.+78     	; 0x146e <didStuff2>

00001420 <bitstuff3>:
bitstuff3:                  ;1 ( )
    eor     x1, x4          ;1
    1420:	05 27       	eor	r16, r21
    rjmp    didStuff3       ;2     ror 0  x2
    1422:	2c c0       	rjmp	.+88     	; 0x147c <didStuff3>

00001424 <bitstuff4>:
bitstuff4:                  ;1 ( )
    eor     x1, x4          ;1
    1424:	05 27       	eor	r16, r21
    ldi     x2, 0           ;1
    1426:	10 e0       	ldi	r17, 0x00	; 0
    out     USBOUT, x1      ;1 <-- 
    1428:	02 bb       	out	0x12, r16	; 18
    rjmp    didStuff4       ;2   2  
    142a:	33 c0       	rjmp	.+102    	; 0x1492 <didStuff4>

0000142c <sendNakAndReti>:

sendNakAndReti:                 ;0 [-19] 19    SOP
    ldi     x3, USBPID_NAK      ;1 [-18]
    142c:	4a e5       	ldi	r20, 0x5A	; 90
    rjmp    usbSendX3           ;2 [-16]
    142e:	03 c0       	rjmp	.+6      	; 0x1436 <usbSendX3>

00001430 <sendAckAndReti>:
sendAckAndReti:                 ;0 [-19] 19    SOP
    ldi     x3, USBPID_ACK      ;1 [-18]
    1430:	42 ed       	ldi	r20, 0xD2	; 210
    rjmp    usbSendX3           ;2 [-16]
    1432:	01 c0       	rjmp	.+2      	; 0x1436 <usbSendX3>

00001434 <sendCntAndReti>:
sendCntAndReti:                 ;0 [-17] 17    SOP
    mov     x3, cnt             ;1 [-16]
    1434:	43 2f       	mov	r20, r19

00001436 <usbSendX3>:
usbSendX3:                      ;0 [-16]
    ldi     YL, 20              ;1 [-15] 'x3'   R20
    1436:	c4 e1       	ldi	r28, 0x14	; 20
    ldi     YH, 0               ;1 [-14]
    1438:	d0 e0       	ldi	r29, 0x00	; 0
    ldi     cnt, 2              ;1 [-13]
    143a:	32 e0       	ldi	r19, 0x02	; 2

0000143c <usbSendAndReti>:
;    'Y'
;   'cnt' --   sync
;: x1...x4, shift, cnt, Y
;       ,      (sync pattern) 
usbSendAndReti:             ;0 [-13] : 13     SOP
    in      x2, USBDDR      ;1 [-12]
    143c:	11 b3       	in	r17, 0x11	; 17
    ori     x2, USBMASK     ;1 [-11]
    143e:	14 61       	ori	r17, 0x14	; 20
    sbi     USBOUT, USBMINUS;2 [-9]    (idle); D+  D-    0 (   (pullups))
    1440:	94 9a       	sbi	0x12, 4	; 18
    in      x1, USBOUT      ;1 [-8]      (tx)
    1442:	02 b3       	in	r16, 0x12	; 18
    out     USBDDR, x2      ;1 [-7] <-  
    1444:	11 bb       	out	0x11, r17	; 17
;    x2 ( bitstuff (  )),  sync   0
    push    x4              ;2 [-5]
    1446:	5f 93       	push	r21
    ldi     x4, USBMASK     ;1 [-4]  exor ( )
    1448:	54 e1       	ldi	r21, 0x14	; 20
    ldi     shift, 0x80     ;1 [-3]  sync -    
    144a:	20 e8       	ldi	r18, 0x80	; 128

0000144c <txLoop>:
txLoop:                     ;       [62]
    sbrs    shift, 0        ;1 [-2] [62]
    144c:	20 ff       	sbrs	r18, 0
    eor     x1, x4          ;1 [-1] [63]
    144e:	05 27       	eor	r16, r21
    out     USBOUT, x1      ;1 [0] <--   0
    1450:	02 bb       	out	0x12, r16	; 18
    ror     shift           ;1 [1]
    1452:	27 95       	ror	r18
    ror     x2              ;1 [2]
    1454:	17 95       	ror	r17

00001456 <didStuff0>:
didStuff0:
    cpi     x2, 0xfc        ;1 [3]
    1456:	1c 3f       	cpi	r17, 0xFC	; 252
    brsh    bitstuff0       ;1 [4]
    1458:	d8 f6       	brcc	.-74     	; 0x1410 <bitstuff0>
    sbrs    shift, 0        ;1 [5]
    145a:	20 ff       	sbrs	r18, 0
    eor     x1, x4          ;1 [6]
    145c:	05 27       	eor	r16, r21
    ror     shift           ;1 [7]
    145e:	27 95       	ror	r18

00001460 <didStuff1>:
didStuff1:
    out     USBOUT, x1      ;1 [8] <--   1
    1460:	02 bb       	out	0x12, r16	; 18
    ror     x2              ;1 [9]
    1462:	17 95       	ror	r17
    cpi     x2, 0xfc        ;1 [10]
    1464:	1c 3f       	cpi	r17, 0xFC	; 252
    brsh    bitstuff1       ;1 [11]
    1466:	c0 f6       	brcc	.-80     	; 0x1418 <bitstuff1>
    sbrs    shift, 0        ;1 [12]
    1468:	20 ff       	sbrs	r18, 0
    eor     x1, x4          ;1 [13]
    146a:	05 27       	eor	r16, r21
    ror     shift           ;1 [14]
    146c:	27 95       	ror	r18

0000146e <didStuff2>:
didStuff2:
    ror     x2              ;1 [15]
    146e:	17 95       	ror	r17
    out     USBOUT, x1      ;1 [16] <--   2
    1470:	02 bb       	out	0x12, r16	; 18
    cpi     x2, 0xfc        ;1 [17]
    1472:	1c 3f       	cpi	r17, 0xFC	; 252
    brsh    bitstuff2       ;1 [18]
    1474:	98 f6       	brcc	.-90     	; 0x141c <bitstuff2>
    sbrs    shift, 0        ;1 [19]
    1476:	20 ff       	sbrs	r18, 0
    eor     x1, x4          ;1 [20]
    1478:	05 27       	eor	r16, r21
    ror     shift           ;1 [21]
    147a:	27 95       	ror	r18

0000147c <didStuff3>:
didStuff3:
    ror     x2              ;1 [22]
    147c:	17 95       	ror	r17
    cpi     x2, 0xfc        ;1 [23]
    147e:	1c 3f       	cpi	r17, 0xFC	; 252
    out     USBOUT, x1      ;1 [24] <--   3
    1480:	02 bb       	out	0x12, r16	; 18
    brsh    bitstuff3       ;1 [25]
    1482:	70 f6       	brcc	.-100    	; 0x1420 <bitstuff3>
    nop2                    ;2 [27]
    1484:	00 c0       	rjmp	.+0      	; 0x1486 <didStuff3+0xa>
    ld      x3, y+          ;2 [29]
    1486:	49 91       	ld	r20, Y+
    sbrs    shift, 0        ;1 [30]
    1488:	20 ff       	sbrs	r18, 0
    eor     x1, x4          ;1 [31]
    148a:	05 27       	eor	r16, r21
    out     USBOUT, x1      ;1 [32] <--   4
    148c:	02 bb       	out	0x12, r16	; 18
    ror     shift           ;1 [33]
    148e:	27 95       	ror	r18
    ror     x2              ;1 [34]
    1490:	17 95       	ror	r17

00001492 <didStuff4>:
didStuff4:
    cpi     x2, 0xfc        ;1 [35]
    1492:	1c 3f       	cpi	r17, 0xFC	; 252
    brsh    bitstuff4       ;1 [36]
    1494:	38 f6       	brcc	.-114    	; 0x1424 <bitstuff4>
    sbrs    shift, 0        ;1 [37]
    1496:	20 ff       	sbrs	r18, 0
    eor     x1, x4          ;1 [38]
    1498:	05 27       	eor	r16, r21
    ror     shift           ;1 [39]
    149a:	27 95       	ror	r18

0000149c <didStuff5>:
didStuff5:
    out     USBOUT, x1      ;1 [40] <--   5
    149c:	02 bb       	out	0x12, r16	; 18
    ror     x2              ;1 [41]
    149e:	17 95       	ror	r17
    cpi     x2, 0xfc        ;1 [42]
    14a0:	1c 3f       	cpi	r17, 0xFC	; 252
    brsh    bitstuff5       ;1 [43]
    14a2:	38 f5       	brcc	.+78     	; 0x14f2 <bitstuff5>
    sbrs    shift, 0        ;1 [44]
    14a4:	20 ff       	sbrs	r18, 0
    eor     x1, x4          ;1 [45]
    14a6:	05 27       	eor	r16, r21
    ror     shift           ;1 [46]
    14a8:	27 95       	ror	r18

000014aa <didStuff6>:
didStuff6:
    ror     x2              ;1 [47]
    14aa:	17 95       	ror	r17
    out     USBOUT, x1      ;1 [48] <--   6
    14ac:	02 bb       	out	0x12, r16	; 18
    cpi     x2, 0xfc        ;1 [49]
    14ae:	1c 3f       	cpi	r17, 0xFC	; 252
    brsh    bitstuff6       ;1 [50]
    14b0:	10 f5       	brcc	.+68     	; 0x14f6 <bitstuff6>
    sbrs    shift, 0        ;1 [51]
    14b2:	20 ff       	sbrs	r18, 0
    eor     x1, x4          ;1 [52]
    14b4:	05 27       	eor	r16, r21
    ror     shift           ;1 [53]
    14b6:	27 95       	ror	r18

000014b8 <didStuff7>:
didStuff7:
    ror     x2              ;1 [54]
    14b8:	17 95       	ror	r17
    cpi     x2, 0xfc        ;1 [55]
    14ba:	1c 3f       	cpi	r17, 0xFC	; 252
    out     USBOUT, x1      ;1 [56] <--   7
    14bc:	02 bb       	out	0x12, r16	; 18
    brsh    bitstuff7       ;1 [57]
    14be:	e8 f4       	brcc	.+58     	; 0x14fa <bitstuff7>
    mov     shift, x3       ;1 [58]
    14c0:	24 2f       	mov	r18, r20
    dec     cnt             ;1 [59]
    14c2:	3a 95       	dec	r19
    brne    txLoop          ;1/2 [60/61]
    14c4:	19 f6       	brne	.-122    	; 0x144c <txLoop>
;make SE0:
    cbr     x1, USBMASK     ;1 [61]  SE0 [ ,  EOP    15  18 ]
    14c6:	0b 7e       	andi	r16, 0xEB	; 235
    pop     x4              ;2 [63]
    14c8:	5f 91       	pop	r21
;    -     SE0
    out     USBOUT, x1      ;1 [0] <--  SE0 --   2  = 16       (idle)
    14ca:	02 bb       	out	0x12, r16	; 18
;2006-03-06:      usbDeviceAddr   C  :
;    ,    ,    (handshake)
    lds     x2, usbNewDeviceAddr;2 [2]
    14cc:	10 91 14 01 	lds	r17, 0x0114
    lsl     x2;             ;1 [3]      
    14d0:	11 0f       	add	r17, r17
    subi    YL, 20 + 2      ;1 [4]      ,  ACK/NAK  x3
    14d2:	c6 51       	subi	r28, 0x16	; 22
    sbci    YH, 0           ;1 [5]
    14d4:	d0 40       	sbci	r29, 0x00	; 0
    breq    skipAddrAssign  ;2 [7]
    14d6:	11 f0       	breq	.+4      	; 0x14dc <skipAddrAssign>
    sts     usbDeviceAddr, x2;   : SE0    
    14d8:	10 93 0e 01 	sts	0x010E, r17

000014dc <skipAddrAssign>:
skipAddrAssign:
;  usbDeviceAddress
    ldi     x2, 1<<USB_INTR_PENDING_BIT;1 [8] int0    TX --    
    14dc:	10 e4       	ldi	r17, 0x40	; 64
    USB_STORE_PENDING(x2)   ;1 [9]
    14de:	1a bf       	out	0x3a, r17	; 58
    ori     x1, USBIDLE     ;1 [10]
    14e0:	00 61       	ori	r16, 0x10	; 16
    in      x2, USBDDR      ;1 [11]
    14e2:	11 b3       	in	r17, 0x11	; 17
    cbr     x2, USBMASK     ;1 [12]     
    14e4:	1b 7e       	andi	r17, 0xEB	; 235
    mov     x3, x1          ;1 [13]
    14e6:	40 2f       	mov	r20, r16
    cbr     x3, USBMASK     ;1 [14]     (pullup)   
    14e8:	4b 7e       	andi	r20, 0xEB	; 235
    out     USBOUT, x1      ;1 [15] <--  J (idle) --  SE0 ( EOP)
    14ea:	02 bb       	out	0x12, r16	; 18
    out     USBDDR, x2      ;1 [16] <--   
    14ec:	11 bb       	out	0x11, r17	; 17
    out     USBOUT, x3      ;1 [17] <--   ,     (pull-up) 
    14ee:	42 bb       	out	0x12, r20	; 18
    rjmp    doReturn
    14f0:	54 cf       	rjmp	.-344    	; 0x139a <doReturn>

000014f2 <bitstuff5>:

bitstuff5:                  ;1 ( )
    eor     x1, x4          ;1
    14f2:	05 27       	eor	r16, r21
    rjmp    didStuff5       ;2   ,    bitstuff1...
    14f4:	d3 cf       	rjmp	.-90     	; 0x149c <didStuff5>

000014f6 <bitstuff6>:
bitstuff6:                  ;1 ( )
    eor     x1, x4          ;1
    14f6:	05 27       	eor	r16, r21
    rjmp    didStuff6       ;2   ,   ...
    14f8:	d8 cf       	rjmp	.-80     	; 0x14aa <didStuff6>

000014fa <bitstuff7>:
bitstuff7:                  ;1 ( )
    eor     x1, x4          ;1
    14fa:	05 27       	eor	r16, r21
    rjmp    didStuff7       ;2   ,   ...
    14fc:	dd cf       	rjmp	.-70     	; 0x14b8 <didStuff7>

000014fe <usbFunctionRead>:
    14fe:	1f 93       	push	r17
    1500:	20 91 aa 00 	lds	r18, 0x00AA
    1504:	16 2f       	mov	r17, r22
    1506:	26 17       	cp	r18, r22
    1508:	08 f4       	brcc	.+2      	; 0x150c <usbFunctionRead+0xe>
    150a:	12 2f       	mov	r17, r18
    150c:	20 91 b4 00 	lds	r18, 0x00B4
    1510:	2a 30       	cpi	r18, 0x0A	; 10
    1512:	a1 f4       	brne	.+40     	; 0x153c <usbFunctionRead+0x3e>
    1514:	28 2f       	mov	r18, r24
    1516:	39 2f       	mov	r19, r25
    1518:	d9 01       	movw	r26, r18
    151a:	20 e0       	ldi	r18, 0x00	; 0
    151c:	30 e0       	ldi	r19, 0x00	; 0
    151e:	0b c0       	rjmp	.+22     	; 0x1536 <usbFunctionRead+0x38>
    1520:	80 91 ab 00 	lds	r24, 0x00AB
    1524:	f9 01       	movw	r30, r18
    1526:	e8 0f       	add	r30, r24
    1528:	f1 1d       	adc	r31, r1
    152a:	ed 54       	subi	r30, 0x4D	; 77
    152c:	ff 4f       	sbci	r31, 0xFF	; 255
    152e:	83 85       	ldd	r24, Z+11	; 0x0b
    1530:	8d 93       	st	X+, r24
    1532:	2f 5f       	subi	r18, 0xFF	; 255
    1534:	3f 4f       	sbci	r19, 0xFF	; 255
    1536:	21 17       	cp	r18, r17
    1538:	98 f3       	brcs	.-26     	; 0x1520 <usbFunctionRead+0x22>
    153a:	04 c0       	rjmp	.+8      	; 0x1544 <usbFunctionRead+0x46>
    153c:	68 e0       	ldi	r22, 0x08	; 8
    153e:	70 e0       	ldi	r23, 0x00	; 0
    1540:	40 e0       	ldi	r20, 0x00	; 0
    1542:	d0 d8       	rcall	.-3680   	; 0x6e4 <makeNullArray>
    1544:	80 91 ab 00 	lds	r24, 0x00AB
    1548:	81 0f       	add	r24, r17
    154a:	80 93 ab 00 	sts	0x00AB, r24
    154e:	80 91 aa 00 	lds	r24, 0x00AA
    1552:	81 1b       	sub	r24, r17
    1554:	80 93 aa 00 	sts	0x00AA, r24
    1558:	88 23       	and	r24, r24
    155a:	31 f4       	brne	.+12     	; 0x1568 <usbFunctionRead+0x6a>
    155c:	81 e0       	ldi	r24, 0x01	; 1
    155e:	80 93 b5 00 	sts	0x00B5, r24
    1562:	10 92 b4 00 	sts	0x00B4, r1
    1566:	02 c0       	rjmp	.+4      	; 0x156c <usbFunctionRead+0x6e>
    1568:	10 92 b5 00 	sts	0x00B5, r1
    156c:	81 2f       	mov	r24, r17
    156e:	1f 91       	pop	r17
    1570:	08 95       	ret

00001572 <usbFunctionWrite>:
    1572:	0f 93       	push	r16
    1574:	1f 93       	push	r17
    1576:	70 e0       	ldi	r23, 0x00	; 0
    1578:	4b ea       	ldi	r20, 0xAB	; 171
    157a:	50 e0       	ldi	r21, 0x00	; 0
    157c:	2a ea       	ldi	r18, 0xAA	; 170
    157e:	30 e0       	ldi	r19, 0x00	; 0
    1580:	03 eb       	ldi	r16, 0xB3	; 179
    1582:	10 e0       	ldi	r17, 0x00	; 0
    1584:	ca d7       	rcall	.+3988   	; 0x251a <__data_load_end+0xe44>
    1586:	1f 91       	pop	r17
    1588:	0f 91       	pop	r16
    158a:	08 95       	ret

0000158c <usbFunctionSetup>:
    158c:	fc 01       	movw	r30, r24
    158e:	80 81       	ld	r24, Z
    1590:	80 76       	andi	r24, 0x60	; 96
    1592:	80 32       	cpi	r24, 0x20	; 32
    1594:	79 f4       	brne	.+30     	; 0x15b4 <usbFunctionSetup+0x28>
    1596:	81 81       	ldd	r24, Z+1	; 0x01
    1598:	81 30       	cpi	r24, 0x01	; 1
    159a:	11 f0       	breq	.+4      	; 0x15a0 <usbFunctionSetup+0x14>
    159c:	89 30       	cpi	r24, 0x09	; 9
    159e:	61 f4       	brne	.+24     	; 0x15b8 <usbFunctionSetup+0x2c>
    15a0:	83 81       	ldd	r24, Z+3	; 0x03
    15a2:	80 93 a9 00 	sts	0x00A9, r24
    15a6:	80 e4       	ldi	r24, 0x40	; 64
    15a8:	80 93 aa 00 	sts	0x00AA, r24
    15ac:	10 92 ab 00 	sts	0x00AB, r1
    15b0:	8f ef       	ldi	r24, 0xFF	; 255
    15b2:	08 95       	ret
    15b4:	80 e0       	ldi	r24, 0x00	; 0
    15b6:	08 95       	ret
    15b8:	80 e0       	ldi	r24, 0x00	; 0
    15ba:	08 95       	ret

000015bc <revisorLocalEeprom>:
    15bc:	80 e0       	ldi	r24, 0x00	; 0
    15be:	90 e0       	ldi	r25, 0x00	; 0
    15c0:	69 d0       	rcall	.+210    	; 0x1694 <__eerd_byte_m8>
    15c2:	8f 3f       	cpi	r24, 0xFF	; 255
    15c4:	29 f4       	brne	.+10     	; 0x15d0 <revisorLocalEeprom+0x14>
    15c6:	80 e0       	ldi	r24, 0x00	; 0
    15c8:	90 e0       	ldi	r25, 0x00	; 0
    15ca:	60 e0       	ldi	r22, 0x00	; 0
    15cc:	74 d0       	rcall	.+232    	; 0x16b6 <__eewr_byte_m8>
    15ce:	05 c0       	rjmp	.+10     	; 0x15da <revisorLocalEeprom+0x1e>
    15d0:	88 23       	and	r24, r24
    15d2:	19 f0       	breq	.+6      	; 0x15da <revisorLocalEeprom+0x1e>
    15d4:	10 92 b3 00 	sts	0x00B3, r1
    15d8:	08 95       	ret
    15da:	81 e0       	ldi	r24, 0x01	; 1
    15dc:	80 93 b3 00 	sts	0x00B3, r24
    15e0:	08 95       	ret

000015e2 <main>:
    15e2:	83 e0       	ldi	r24, 0x03	; 3
    15e4:	87 bb       	out	0x17, r24	; 23
    15e6:	18 d8       	rcall	.-4048   	; 0x618 <timers_init>
    15e8:	85 e0       	ldi	r24, 0x05	; 5
    15ea:	89 bf       	out	0x39, r24	; 57
    15ec:	74 d5       	rcall	.+2792   	; 0x20d6 <__data_load_end+0xa00>
    15ee:	2f e0       	ldi	r18, 0x0F	; 15
    15f0:	88 e1       	ldi	r24, 0x18	; 24
    15f2:	90 e0       	ldi	r25, 0x00	; 0
    15f4:	0f b6       	in	r0, 0x3f	; 63
    15f6:	f8 94       	cli
    15f8:	a8 95       	wdr
    15fa:	81 bd       	out	0x21, r24	; 33
    15fc:	0f be       	out	0x3f, r0	; 63
    15fe:	21 bd       	out	0x21, r18	; 33
    1600:	fc dd       	rcall	.-1032   	; 0x11fa <usbInit>
    1602:	8c 9a       	sbi	0x11, 4	; 17
    1604:	80 e0       	ldi	r24, 0x00	; 0
    1606:	07 c0       	rjmp	.+14     	; 0x1616 <main+0x34>
    1608:	a8 95       	wdr
    160a:	e7 eb       	ldi	r30, 0xB7	; 183
    160c:	fb e0       	ldi	r31, 0x0B	; 11
    160e:	31 97       	sbiw	r30, 0x01	; 1
    1610:	f1 f7       	brne	.-4      	; 0x160e <main+0x2c>
    1612:	00 c0       	rjmp	.+0      	; 0x1614 <main+0x32>
    1614:	00 00       	nop
    1616:	81 50       	subi	r24, 0x01	; 1
    1618:	b9 f7       	brne	.-18     	; 0x1608 <main+0x26>
    161a:	8c 98       	cbi	0x11, 4	; 17
    161c:	78 94       	sei
    161e:	ce df       	rcall	.-100    	; 0x15bc <revisorLocalEeprom>
    1620:	a8 95       	wdr
    1622:	bc dc       	rcall	.-1672   	; 0xf9c <usbPoll>
    1624:	fd cf       	rjmp	.-6      	; 0x1620 <main+0x3e>

00001626 <__udivmodhi4>:
    1626:	aa 1b       	sub	r26, r26
    1628:	bb 1b       	sub	r27, r27
    162a:	51 e1       	ldi	r21, 0x11	; 17
    162c:	07 c0       	rjmp	.+14     	; 0x163c <__udivmodhi4_ep>

0000162e <__udivmodhi4_loop>:
    162e:	aa 1f       	adc	r26, r26
    1630:	bb 1f       	adc	r27, r27
    1632:	a6 17       	cp	r26, r22
    1634:	b7 07       	cpc	r27, r23
    1636:	10 f0       	brcs	.+4      	; 0x163c <__udivmodhi4_ep>
    1638:	a6 1b       	sub	r26, r22
    163a:	b7 0b       	sbc	r27, r23

0000163c <__udivmodhi4_ep>:
    163c:	88 1f       	adc	r24, r24
    163e:	99 1f       	adc	r25, r25
    1640:	5a 95       	dec	r21
    1642:	a9 f7       	brne	.-22     	; 0x162e <__udivmodhi4_loop>
    1644:	80 95       	com	r24
    1646:	90 95       	com	r25
    1648:	bc 01       	movw	r22, r24
    164a:	cd 01       	movw	r24, r26
    164c:	08 95       	ret

0000164e <__divmodhi4>:
    164e:	97 fb       	bst	r25, 7
    1650:	09 2e       	mov	r0, r25
    1652:	07 26       	eor	r0, r23
    1654:	0a d0       	rcall	.+20     	; 0x166a <__divmodhi4_neg1>
    1656:	77 fd       	sbrc	r23, 7
    1658:	04 d0       	rcall	.+8      	; 0x1662 <__divmodhi4_neg2>
    165a:	e5 df       	rcall	.-54     	; 0x1626 <__udivmodhi4>
    165c:	06 d0       	rcall	.+12     	; 0x166a <__divmodhi4_neg1>
    165e:	00 20       	and	r0, r0
    1660:	1a f4       	brpl	.+6      	; 0x1668 <__divmodhi4_exit>

00001662 <__divmodhi4_neg2>:
    1662:	70 95       	com	r23
    1664:	61 95       	neg	r22
    1666:	7f 4f       	sbci	r23, 0xFF	; 255

00001668 <__divmodhi4_exit>:
    1668:	08 95       	ret

0000166a <__divmodhi4_neg1>:
    166a:	f6 f7       	brtc	.-4      	; 0x1668 <__divmodhi4_exit>
    166c:	90 95       	com	r25
    166e:	81 95       	neg	r24
    1670:	9f 4f       	sbci	r25, 0xFF	; 255
    1672:	08 95       	ret

00001674 <__eerd_block_m8>:
    1674:	dc 01       	movw	r26, r24
    1676:	cb 01       	movw	r24, r22

00001678 <__eerd_blraw_m8>:
    1678:	fc 01       	movw	r30, r24
    167a:	e1 99       	sbic	0x1c, 1	; 28
    167c:	fe cf       	rjmp	.-4      	; 0x167a <__eerd_blraw_m8+0x2>
    167e:	06 c0       	rjmp	.+12     	; 0x168c <__eerd_blraw_m8+0x14>
    1680:	ff bb       	out	0x1f, r31	; 31
    1682:	ee bb       	out	0x1e, r30	; 30
    1684:	e0 9a       	sbi	0x1c, 0	; 28
    1686:	31 96       	adiw	r30, 0x01	; 1
    1688:	0d b2       	in	r0, 0x1d	; 29
    168a:	0d 92       	st	X+, r0
    168c:	41 50       	subi	r20, 0x01	; 1
    168e:	50 40       	sbci	r21, 0x00	; 0
    1690:	b8 f7       	brcc	.-18     	; 0x1680 <__eerd_blraw_m8+0x8>
    1692:	08 95       	ret

00001694 <__eerd_byte_m8>:
    1694:	e1 99       	sbic	0x1c, 1	; 28
    1696:	fe cf       	rjmp	.-4      	; 0x1694 <__eerd_byte_m8>
    1698:	9f bb       	out	0x1f, r25	; 31
    169a:	8e bb       	out	0x1e, r24	; 30
    169c:	e0 9a       	sbi	0x1c, 0	; 28
    169e:	99 27       	eor	r25, r25
    16a0:	8d b3       	in	r24, 0x1d	; 29
    16a2:	08 95       	ret

000016a4 <__eewr_block_m8>:
    16a4:	dc 01       	movw	r26, r24
    16a6:	cb 01       	movw	r24, r22
    16a8:	02 c0       	rjmp	.+4      	; 0x16ae <__eewr_block_m8+0xa>
    16aa:	2d 91       	ld	r18, X+
    16ac:	05 d0       	rcall	.+10     	; 0x16b8 <__eewr_r18_m8>
    16ae:	41 50       	subi	r20, 0x01	; 1
    16b0:	50 40       	sbci	r21, 0x00	; 0
    16b2:	d8 f7       	brcc	.-10     	; 0x16aa <__eewr_block_m8+0x6>
    16b4:	08 95       	ret

000016b6 <__eewr_byte_m8>:
    16b6:	26 2f       	mov	r18, r22

000016b8 <__eewr_r18_m8>:
    16b8:	e1 99       	sbic	0x1c, 1	; 28
    16ba:	fe cf       	rjmp	.-4      	; 0x16b8 <__eewr_r18_m8>
    16bc:	9f bb       	out	0x1f, r25	; 31
    16be:	8e bb       	out	0x1e, r24	; 30
    16c0:	2d bb       	out	0x1d, r18	; 29
    16c2:	0f b6       	in	r0, 0x3f	; 63
    16c4:	f8 94       	cli
    16c6:	e2 9a       	sbi	0x1c, 2	; 28
    16c8:	e1 9a       	sbi	0x1c, 1	; 28
    16ca:	0f be       	out	0x3f, r0	; 63
    16cc:	01 96       	adiw	r24, 0x01	; 1
    16ce:	08 95       	ret

000016d0 <_exit>:
    16d0:	f8 94       	cli

000016d2 <__stop_program>:
    16d2:	ff cf       	rjmp	.-2      	; 0x16d2 <__stop_program>
